

Microchip MPLAB XC8 Assembler V2.40 build 20220703182018 
                                                                                               Wed Mar 08 12:30:52 2023

Microchip MPLAB XC8 C Compiler v2.40 (Free license) build 20220703182018 Og1 
     1                           	processor	16F887
     2                           	pagewidth 120
     3                           	opt	flic
     4                           	psect	cinit,global,class=CODE,merge=1,delta=2
     5                           	psect	bssBANK0,global,class=BANK0,space=1,delta=1,noexec
     6                           	psect	cstackCOMMON,global,class=COMMON,space=1,delta=1,noexec
     7                           	psect	cstackBANK0,global,class=BANK0,space=1,delta=1,noexec
     8                           	psect	maintext,global,class=CODE,split=1,delta=2
     9                           	psect	text1,local,class=CODE,merge=1,delta=2
    10                           	psect	text2,local,class=CODE,merge=1,delta=2
    11                           	psect	text3,local,class=CODE,merge=1,delta=2
    12                           	psect	text4,local,class=CODE,merge=1,delta=2
    13                           	psect	intentry,global,class=CODE,delta=2
    14                           	psect	text5,local,class=CODE,merge=1,delta=2
    15                           	psect	text6,local,class=CODE,merge=1,delta=2
    16                           	psect	text7,local,class=CODE,merge=1,delta=2
    17                           	psect	text8,local,class=CODE,merge=1,delta=2
    18                           	psect	idloc,global,abs,ovrld,class=IDLOC,space=5,delta=2,noexec
    19                           	psect	config,global,abs,ovrld,class=CONFIG,space=4,delta=2,noexec
    20                           	dabs	1,0x7E,2
    21     0000                     
    22                           ; Version 2.40
    23                           ; Generated 17/11/2021 GMT
    24                           ; 
    25                           ; Copyright © 2021, Microchip Technology Inc. and its subsidiaries ("Microchip")
    26                           ; All rights reserved.
    27                           ; 
    28                           ; This software is developed by Microchip Technology Inc. and its subsidiaries ("Microch
      +                          ip").
    29                           ; 
    30                           ; Redistribution and use in source and binary forms, with or without modification, are
    31                           ; permitted provided that the following conditions are met:
    32                           ; 
    33                           ;     1. Redistributions of source code must retain the above copyright notice, this lis
      +                          t of
    34                           ;        conditions and the following disclaimer.
    35                           ; 
    36                           ;     2. Redistributions in binary form must reproduce the above copyright notice, this 
      +                          list
    37                           ;        of conditions and the following disclaimer in the documentation and/or other
    38                           ;        materials provided with the distribution. Publication is not required when
    39                           ;        this file is used in an embedded application.
    40                           ; 
    41                           ;     3. Microchip's name may not be used to endorse or promote products derived from th
      +                          is
    42                           ;        software without specific prior written permission.
    43                           ; 
    44                           ; THIS SOFTWARE IS PROVIDED BY MICROCHIP "AS IS" AND ANY EXPRESS OR IMPLIED WARRANTIES,
    45                           ; INCLUDING, BUT NOT LIMITED TO, THE IMPLIED WARRANTIES OF MERCHANTABILITY AND FITNESS F
      +                          OR
    46                           ; PURPOSE ARE DISCLAIMED.  IN NO EVENT SHALL MICROCHIP BE LIABLE FOR ANY DIRECT, INDIREC
      +                          T,
    47                           ; INCIDENTAL, SPECIAL, EXEMPLARY, OR CONSEQUENTIAL DAMAGES (INCLUDING BUT NOT LIMITED TO
    48                           ; PROCUREMENT OF SUBSTITUTE GOODS OR SERVICES; LOSS OF USE, DATA OR PROFITS; OR BUSINESS
    49                           ; INTERRUPTION) HOWSOEVER CAUSED AND ON ANY THEORY OF LIABILITY, WHETHER IN CONTRACT, ST
      +                          RICT
    50                           ; LIABILITY, OR TORT (INCLUDING NEGLIGENCE OR OTHERWISE) ARISING IN ANY WAY OUT OF THE U
      +                          SE OF
    51                           ; THIS SOFTWARE, EVEN IF ADVISED OF THE POSSIBILITY OF SUCH DAMAGE.
    52                           ; 
    53                           ; 
    54                           ; Code-generator required, PIC16F887 Definitions
    55                           ; 
    56                           ; SFR Addresses
    57     0000                     	;# 
    58     0001                     	;# 
    59     0002                     	;# 
    60     0003                     	;# 
    61     0004                     	;# 
    62     0005                     	;# 
    63     0006                     	;# 
    64     0007                     	;# 
    65     0008                     	;# 
    66     0009                     	;# 
    67     000A                     	;# 
    68     000B                     	;# 
    69     000C                     	;# 
    70     000D                     	;# 
    71     000E                     	;# 
    72     000E                     	;# 
    73     000F                     	;# 
    74     0010                     	;# 
    75     0011                     	;# 
    76     0012                     	;# 
    77     0013                     	;# 
    78     0014                     	;# 
    79     0015                     	;# 
    80     0015                     	;# 
    81     0016                     	;# 
    82     0017                     	;# 
    83     0018                     	;# 
    84     0019                     	;# 
    85     001A                     	;# 
    86     001B                     	;# 
    87     001B                     	;# 
    88     001C                     	;# 
    89     001D                     	;# 
    90     001E                     	;# 
    91     001F                     	;# 
    92     0081                     	;# 
    93     0085                     	;# 
    94     0086                     	;# 
    95     0087                     	;# 
    96     0088                     	;# 
    97     0089                     	;# 
    98     008C                     	;# 
    99     008D                     	;# 
   100     008E                     	;# 
   101     008F                     	;# 
   102     0090                     	;# 
   103     0091                     	;# 
   104     0092                     	;# 
   105     0093                     	;# 
   106     0093                     	;# 
   107     0093                     	;# 
   108     0094                     	;# 
   109     0095                     	;# 
   110     0096                     	;# 
   111     0097                     	;# 
   112     0098                     	;# 
   113     0099                     	;# 
   114     009A                     	;# 
   115     009B                     	;# 
   116     009C                     	;# 
   117     009D                     	;# 
   118     009E                     	;# 
   119     009F                     	;# 
   120     0105                     	;# 
   121     0107                     	;# 
   122     0108                     	;# 
   123     0109                     	;# 
   124     010C                     	;# 
   125     010C                     	;# 
   126     010D                     	;# 
   127     010E                     	;# 
   128     010F                     	;# 
   129     0185                     	;# 
   130     0187                     	;# 
   131     0188                     	;# 
   132     0189                     	;# 
   133     018C                     	;# 
   134     018D                     	;# 
   135     0000                     	;# 
   136     0001                     	;# 
   137     0002                     	;# 
   138     0003                     	;# 
   139     0004                     	;# 
   140     0005                     	;# 
   141     0006                     	;# 
   142     0007                     	;# 
   143     0008                     	;# 
   144     0009                     	;# 
   145     000A                     	;# 
   146     000B                     	;# 
   147     000C                     	;# 
   148     000D                     	;# 
   149     000E                     	;# 
   150     000E                     	;# 
   151     000F                     	;# 
   152     0010                     	;# 
   153     0011                     	;# 
   154     0012                     	;# 
   155     0013                     	;# 
   156     0014                     	;# 
   157     0015                     	;# 
   158     0015                     	;# 
   159     0016                     	;# 
   160     0017                     	;# 
   161     0018                     	;# 
   162     0019                     	;# 
   163     001A                     	;# 
   164     001B                     	;# 
   165     001B                     	;# 
   166     001C                     	;# 
   167     001D                     	;# 
   168     001E                     	;# 
   169     001F                     	;# 
   170     0081                     	;# 
   171     0085                     	;# 
   172     0086                     	;# 
   173     0087                     	;# 
   174     0088                     	;# 
   175     0089                     	;# 
   176     008C                     	;# 
   177     008D                     	;# 
   178     008E                     	;# 
   179     008F                     	;# 
   180     0090                     	;# 
   181     0091                     	;# 
   182     0092                     	;# 
   183     0093                     	;# 
   184     0093                     	;# 
   185     0093                     	;# 
   186     0094                     	;# 
   187     0095                     	;# 
   188     0096                     	;# 
   189     0097                     	;# 
   190     0098                     	;# 
   191     0099                     	;# 
   192     009A                     	;# 
   193     009B                     	;# 
   194     009C                     	;# 
   195     009D                     	;# 
   196     009E                     	;# 
   197     009F                     	;# 
   198     0105                     	;# 
   199     0107                     	;# 
   200     0108                     	;# 
   201     0109                     	;# 
   202     010C                     	;# 
   203     010C                     	;# 
   204     010D                     	;# 
   205     010E                     	;# 
   206     010F                     	;# 
   207     0185                     	;# 
   208     0187                     	;# 
   209     0188                     	;# 
   210     0189                     	;# 
   211     018C                     	;# 
   212     018D                     	;# 
   213     0000                     	;# 
   214     0001                     	;# 
   215     0002                     	;# 
   216     0003                     	;# 
   217     0004                     	;# 
   218     0005                     	;# 
   219     0006                     	;# 
   220     0007                     	;# 
   221     0008                     	;# 
   222     0009                     	;# 
   223     000A                     	;# 
   224     000B                     	;# 
   225     000C                     	;# 
   226     000D                     	;# 
   227     000E                     	;# 
   228     000E                     	;# 
   229     000F                     	;# 
   230     0010                     	;# 
   231     0011                     	;# 
   232     0012                     	;# 
   233     0013                     	;# 
   234     0014                     	;# 
   235     0015                     	;# 
   236     0015                     	;# 
   237     0016                     	;# 
   238     0017                     	;# 
   239     0018                     	;# 
   240     0019                     	;# 
   241     001A                     	;# 
   242     001B                     	;# 
   243     001B                     	;# 
   244     001C                     	;# 
   245     001D                     	;# 
   246     001E                     	;# 
   247     001F                     	;# 
   248     0081                     	;# 
   249     0085                     	;# 
   250     0086                     	;# 
   251     0087                     	;# 
   252     0088                     	;# 
   253     0089                     	;# 
   254     008C                     	;# 
   255     008D                     	;# 
   256     008E                     	;# 
   257     008F                     	;# 
   258     0090                     	;# 
   259     0091                     	;# 
   260     0092                     	;# 
   261     0093                     	;# 
   262     0093                     	;# 
   263     0093                     	;# 
   264     0094                     	;# 
   265     0095                     	;# 
   266     0096                     	;# 
   267     0097                     	;# 
   268     0098                     	;# 
   269     0099                     	;# 
   270     009A                     	;# 
   271     009B                     	;# 
   272     009C                     	;# 
   273     009D                     	;# 
   274     009E                     	;# 
   275     009F                     	;# 
   276     0105                     	;# 
   277     0107                     	;# 
   278     0108                     	;# 
   279     0109                     	;# 
   280     010C                     	;# 
   281     010C                     	;# 
   282     010D                     	;# 
   283     010E                     	;# 
   284     010F                     	;# 
   285     0185                     	;# 
   286     0187                     	;# 
   287     0188                     	;# 
   288     0189                     	;# 
   289     018C                     	;# 
   290     018D                     	;# 
   291     0000                     	;# 
   292     0001                     	;# 
   293     0002                     	;# 
   294     0003                     	;# 
   295     0004                     	;# 
   296     0005                     	;# 
   297     0006                     	;# 
   298     0007                     	;# 
   299     0008                     	;# 
   300     0009                     	;# 
   301     000A                     	;# 
   302     000B                     	;# 
   303     000C                     	;# 
   304     000D                     	;# 
   305     000E                     	;# 
   306     000E                     	;# 
   307     000F                     	;# 
   308     0010                     	;# 
   309     0011                     	;# 
   310     0012                     	;# 
   311     0013                     	;# 
   312     0014                     	;# 
   313     0015                     	;# 
   314     0015                     	;# 
   315     0016                     	;# 
   316     0017                     	;# 
   317     0018                     	;# 
   318     0019                     	;# 
   319     001A                     	;# 
   320     001B                     	;# 
   321     001B                     	;# 
   322     001C                     	;# 
   323     001D                     	;# 
   324     001E                     	;# 
   325     001F                     	;# 
   326     0081                     	;# 
   327     0085                     	;# 
   328     0086                     	;# 
   329     0087                     	;# 
   330     0088                     	;# 
   331     0089                     	;# 
   332     008C                     	;# 
   333     008D                     	;# 
   334     008E                     	;# 
   335     008F                     	;# 
   336     0090                     	;# 
   337     0091                     	;# 
   338     0092                     	;# 
   339     0093                     	;# 
   340     0093                     	;# 
   341     0093                     	;# 
   342     0094                     	;# 
   343     0095                     	;# 
   344     0096                     	;# 
   345     0097                     	;# 
   346     0098                     	;# 
   347     0099                     	;# 
   348     009A                     	;# 
   349     009B                     	;# 
   350     009C                     	;# 
   351     009D                     	;# 
   352     009E                     	;# 
   353     009F                     	;# 
   354     0105                     	;# 
   355     0107                     	;# 
   356     0108                     	;# 
   357     0109                     	;# 
   358     010C                     	;# 
   359     010C                     	;# 
   360     010D                     	;# 
   361     010E                     	;# 
   362     010F                     	;# 
   363     0185                     	;# 
   364     0187                     	;# 
   365     0188                     	;# 
   366     0189                     	;# 
   367     018C                     	;# 
   368     018D                     	;# 
   369     0000                     	;# 
   370     0001                     	;# 
   371     0002                     	;# 
   372     0003                     	;# 
   373     0004                     	;# 
   374     0005                     	;# 
   375     0006                     	;# 
   376     0007                     	;# 
   377     0008                     	;# 
   378     0009                     	;# 
   379     000A                     	;# 
   380     000B                     	;# 
   381     000C                     	;# 
   382     000D                     	;# 
   383     000E                     	;# 
   384     000E                     	;# 
   385     000F                     	;# 
   386     0010                     	;# 
   387     0011                     	;# 
   388     0012                     	;# 
   389     0013                     	;# 
   390     0014                     	;# 
   391     0015                     	;# 
   392     0015                     	;# 
   393     0016                     	;# 
   394     0017                     	;# 
   395     0018                     	;# 
   396     0019                     	;# 
   397     001A                     	;# 
   398     001B                     	;# 
   399     001B                     	;# 
   400     001C                     	;# 
   401     001D                     	;# 
   402     001E                     	;# 
   403     001F                     	;# 
   404     0081                     	;# 
   405     0085                     	;# 
   406     0086                     	;# 
   407     0087                     	;# 
   408     0088                     	;# 
   409     0089                     	;# 
   410     008C                     	;# 
   411     008D                     	;# 
   412     008E                     	;# 
   413     008F                     	;# 
   414     0090                     	;# 
   415     0091                     	;# 
   416     0092                     	;# 
   417     0093                     	;# 
   418     0093                     	;# 
   419     0093                     	;# 
   420     0094                     	;# 
   421     0095                     	;# 
   422     0096                     	;# 
   423     0097                     	;# 
   424     0098                     	;# 
   425     0099                     	;# 
   426     009A                     	;# 
   427     009B                     	;# 
   428     009C                     	;# 
   429     009D                     	;# 
   430     009E                     	;# 
   431     009F                     	;# 
   432     0105                     	;# 
   433     0107                     	;# 
   434     0108                     	;# 
   435     0109                     	;# 
   436     010C                     	;# 
   437     010C                     	;# 
   438     010D                     	;# 
   439     010E                     	;# 
   440     010F                     	;# 
   441     0185                     	;# 
   442     0187                     	;# 
   443     0188                     	;# 
   444     0189                     	;# 
   445     018C                     	;# 
   446     018D                     	;# 
   447     0000                     	;# 
   448     0001                     	;# 
   449     0002                     	;# 
   450     0003                     	;# 
   451     0004                     	;# 
   452     0005                     	;# 
   453     0006                     	;# 
   454     0007                     	;# 
   455     0008                     	;# 
   456     0009                     	;# 
   457     000A                     	;# 
   458     000B                     	;# 
   459     000C                     	;# 
   460     000D                     	;# 
   461     000E                     	;# 
   462     000E                     	;# 
   463     000F                     	;# 
   464     0010                     	;# 
   465     0011                     	;# 
   466     0012                     	;# 
   467     0013                     	;# 
   468     0014                     	;# 
   469     0015                     	;# 
   470     0015                     	;# 
   471     0016                     	;# 
   472     0017                     	;# 
   473     0018                     	;# 
   474     0019                     	;# 
   475     001A                     	;# 
   476     001B                     	;# 
   477     001B                     	;# 
   478     001C                     	;# 
   479     001D                     	;# 
   480     001E                     	;# 
   481     001F                     	;# 
   482     0081                     	;# 
   483     0085                     	;# 
   484     0086                     	;# 
   485     0087                     	;# 
   486     0088                     	;# 
   487     0089                     	;# 
   488     008C                     	;# 
   489     008D                     	;# 
   490     008E                     	;# 
   491     008F                     	;# 
   492     0090                     	;# 
   493     0091                     	;# 
   494     0092                     	;# 
   495     0093                     	;# 
   496     0093                     	;# 
   497     0093                     	;# 
   498     0094                     	;# 
   499     0095                     	;# 
   500     0096                     	;# 
   501     0097                     	;# 
   502     0098                     	;# 
   503     0099                     	;# 
   504     009A                     	;# 
   505     009B                     	;# 
   506     009C                     	;# 
   507     009D                     	;# 
   508     009E                     	;# 
   509     009F                     	;# 
   510     0105                     	;# 
   511     0107                     	;# 
   512     0108                     	;# 
   513     0109                     	;# 
   514     010C                     	;# 
   515     010C                     	;# 
   516     010D                     	;# 
   517     010E                     	;# 
   518     010F                     	;# 
   519     0185                     	;# 
   520     0187                     	;# 
   521     0188                     	;# 
   522     0189                     	;# 
   523     018C                     	;# 
   524     018D                     	;# 
   525     000E                     _TMR1	set	14
   526     0008                     _PORTDbits	set	8
   527     001E                     _ADRESH	set	30
   528     001F                     _ADCON0bits	set	31
   529     0005                     _PORTAbits	set	5
   530     0014                     _SSPCON	set	20
   531     0010                     _T1CONbits	set	16
   532     0013                     _SSPBUF	set	19
   533     0014                     _SSPCONbits	set	20
   534     000C                     _PIR1bits	set	12
   535     0066                     _ADIF	set	102
   536     0063                     _SSPIF	set	99
   537     005E                     _PEIE	set	94
   538     005F                     _GIE	set	95
   539     0088                     _TRISDbits	set	136
   540     009F                     _ADCON1bits	set	159
   541     0085                     _TRISAbits	set	133
   542     008F                     _OSCCONbits	set	143
   543     0091                     _SSPCON2bits	set	145
   544     0087                     _TRISCbits	set	135
   545     0094                     _SSPSTAT	set	148
   546     0093                     _SSPADD	set	147
   547     0091                     _SSPCON2	set	145
   548     0094                     _SSPSTATbits	set	148
   549     0463                     _SSPIE	set	1123
   550     043C                     _TRISC4	set	1084
   551     043B                     _TRISC3	set	1083
   552     0188                     _ANSELbits	set	392
   553     0189                     _ANSELH	set	393
   554     0188                     _ANSEL	set	392
   555                           
   556                           	psect	cinit
   557     000F                     start_initialization:	
   558                           ; #config settings
   559                           
   560     000F                     __initialization:
   561                           
   562                           ; Clear objects allocated to BANK0
   563     000F  1283               	bcf	3,5	;RP0=0, select bank0
   564     0010  1303               	bcf	3,6	;RP1=0, select bank0
   565     0011  01A0               	clrf	__pbssBANK0& (0+127)
   566     0012  01A1               	clrf	(__pbssBANK0+1)& (0+127)
   567     0013  01A2               	clrf	(__pbssBANK0+2)& (0+127)
   568     0014  01A3               	clrf	(__pbssBANK0+3)& (0+127)
   569     0015  01A4               	clrf	(__pbssBANK0+4)& (0+127)
   570     0016  01A5               	clrf	(__pbssBANK0+5)& (0+127)
   571     0017  01A6               	clrf	(__pbssBANK0+6)& (0+127)
   572     0018  01A7               	clrf	(__pbssBANK0+7)& (0+127)
   573     0019  01A8               	clrf	(__pbssBANK0+8)& (0+127)
   574     001A                     end_of_initialization:	
   575                           ;End of C runtime variable initialization code
   576                           
   577     001A                     __end_of__initialization:
   578     001A  0183               	clrf	3
   579     001B  120A  118A  29C8   	ljmp	_main	;jump to C main() function
   580                           
   581                           	psect	bssBANK0
   582     0020                     __pbssBANK0:
   583     0020                     _timeout:
   584     0020                     	ds	2
   585     0022                     _dht_ok:
   586     0022                     	ds	2
   587     0024                     _check:
   588     0024                     	ds	1
   589     0025                     _x:
   590     0025                     	ds	1
   591     0026                     _z:
   592     0026                     	ds	1
   593     0027                     _temperaturai:
   594     0027                     	ds	1
   595     0028                     _dato:
   596     0028                     	ds	1
   597                           
   598                           	psect	cstackCOMMON
   599     0070                     __pcstackCOMMON:
   600     0070                     ?_leer_temp:
   601     0070                     ?_setupINTOSC:	
   602                           ; 1 bytes @ 0x0
   603                           
   604     0070                     ?_portsetup:	
   605                           ; 1 bytes @ 0x0
   606                           
   607     0070                     ?_I2C_Slave_Init:	
   608                           ; 1 bytes @ 0x0
   609                           
   610     0070                     ?_DHT11_Start:	
   611                           ; 1 bytes @ 0x0
   612                           
   613     0070                     ??_DHT11_Start:	
   614                           ; 1 bytes @ 0x0
   615                           
   616     0070                     ?_isr:	
   617                           ; 1 bytes @ 0x0
   618                           
   619     0070                     ?_main:	
   620                           ; 1 bytes @ 0x0
   621                           
   622     0070                     ?_DHT11_Response:	
   623                           ; 1 bytes @ 0x0
   624                           
   625     0070                     ?_DHT11_Read:	
   626                           ; 2 bytes @ 0x0
   627                           
   628                           
   629                           ; 2 bytes @ 0x0
   630     0070                     	ds	2
   631     0072                     ??_DHT11_Response:
   632     0072                     ??_DHT11_Read:	
   633                           ; 1 bytes @ 0x2
   634                           
   635                           
   636                           ; 1 bytes @ 0x2
   637     0072                     	ds	3
   638     0075                     DHT11_Read@_data:
   639                           
   640                           ; 2 bytes @ 0x5
   641     0075                     	ds	2
   642     0077                     DHT11_Read@i:
   643                           
   644                           ; 1 bytes @ 0x7
   645     0077                     	ds	1
   646     0078                     ??_leer_temp:
   647                           
   648                           ; 1 bytes @ 0x8
   649     0078                     	ds	3
   650     007B                     ??_isr:
   651                           
   652                           ; 1 bytes @ 0xB
   653     007B                     	ds	3
   654                           
   655                           	psect	cstackBANK0
   656     0029                     __pcstackBANK0:
   657     0029                     ??_setupINTOSC:
   658     0029                     ??_I2C_Slave_Init:	
   659                           ; 1 bytes @ 0x0
   660                           
   661     0029                     I2C_Slave_Init@address:	
   662                           ; 1 bytes @ 0x0
   663                           
   664     0029                     setupINTOSC@IRCF:	
   665                           ; 1 bytes @ 0x0
   666                           
   667                           
   668                           ; 1 bytes @ 0x0
   669     0029                     	ds	1
   670     002A                     ??_portsetup:
   671     002A                     ??_main:	
   672                           ; 1 bytes @ 0x1
   673                           
   674                           
   675                           ; 1 bytes @ 0x1
   676     002A                     	ds	2
   677                           
   678                           	psect	maintext
   679     01C8                     __pmaintext:	
   680 ;;
   681 ;;Main: autosize = 0, tempsize = 2, incstack = 0, save=0
   682 ;;
   683 ;; *************** function _main *****************
   684 ;; Defined at:
   685 ;;		line 110 in file "main.c"
   686 ;; Parameters:    Size  Location     Type
   687 ;;		None
   688 ;; Auto vars:     Size  Location     Type
   689 ;;		None
   690 ;; Return value:  Size  Location     Type
   691 ;;                  1    wreg      void 
   692 ;; Registers used:
   693 ;;		wreg, status,2, status,0, pclath, cstack
   694 ;; Tracked objects:
   695 ;;		On entry : B00/0
   696 ;;		On exit  : 0/0
   697 ;;		Unchanged: 0/0
   698 ;; Data sizes:     COMMON   BANK0   BANK1   BANK3   BANK2
   699 ;;      Params:         0       0       0       0       0
   700 ;;      Locals:         0       0       0       0       0
   701 ;;      Temps:          0       2       0       0       0
   702 ;;      Totals:         0       2       0       0       0
   703 ;;Total ram usage:        2 bytes
   704 ;; Hardware stack levels required when called: 5
   705 ;; This function calls:
   706 ;;		_portsetup
   707 ;;		_setupINTOSC
   708 ;; This function is called by:
   709 ;;		Startup code after reset
   710 ;; This function uses a non-reentrant model
   711 ;;
   712                           
   713     01C8                     _main:	
   714                           ;psect for function _main
   715                           
   716     01C8                     l1247:	
   717                           ;incstack = 0
   718                           ; Regs used in _main: [wreg+status,2+status,0+pclath+cstack]
   719                           
   720                           
   721                           ;main.c: 111:     setupINTOSC(7);
   722     01C8  3007               	movlw	7
   723     01C9  120A  118A  201E  120A  118A  	fcall	_setupINTOSC
   724                           
   725                           ;main.c: 112:     portsetup();
   726     01CE  120A  118A  221B  120A  118A  	fcall	_portsetup
   727     01D3                     l1249:
   728                           
   729                           ;main.c: 113:     dato = 0;
   730     01D3  1283               	bcf	3,5	;RP0=0, select bank0
   731     01D4  1303               	bcf	3,6	;RP1=0, select bank0
   732     01D5  01A8               	clrf	_dato
   733     01D6                     l1251:
   734                           
   735                           ;main.c: 119:         _delay((unsigned long)((50)*(8000000/4000.0)));
   736     01D6  3082               	movlw	130
   737     01D7  1283               	bcf	3,5	;RP0=0, select bank0
   738     01D8  1303               	bcf	3,6	;RP1=0, select bank0
   739     01D9  00AB               	movwf	??_main+1
   740     01DA  30DD               	movlw	221
   741     01DB  00AA               	movwf	??_main
   742     01DC                     u767:
   743     01DC  0BAA               	decfsz	??_main,f
   744     01DD  29DC               	goto	u767
   745     01DE  0BAB               	decfsz	??_main+1,f
   746     01DF  29DC               	goto	u767
   747     01E0  29D6               	goto	l1251
   748     01E1  120A  118A  280C   	ljmp	start
   749     01E4                     __end_of_main:
   750                           
   751                           	psect	text1
   752     001E                     __ptext1:	
   753 ;; *************** function _setupINTOSC *****************
   754 ;; Defined at:
   755 ;;		line 10 in file "../SLAVE1.X/oscilador.c"
   756 ;; Parameters:    Size  Location     Type
   757 ;;  IRCF            1    wreg     unsigned char 
   758 ;; Auto vars:     Size  Location     Type
   759 ;;  IRCF            1    0[BANK0 ] unsigned char 
   760 ;; Return value:  Size  Location     Type
   761 ;;                  1    wreg      void 
   762 ;; Registers used:
   763 ;;		wreg, status,2, status,0
   764 ;; Tracked objects:
   765 ;;		On entry : 0/0
   766 ;;		On exit  : 0/0
   767 ;;		Unchanged: 0/0
   768 ;; Data sizes:     COMMON   BANK0   BANK1   BANK3   BANK2
   769 ;;      Params:         0       0       0       0       0
   770 ;;      Locals:         0       1       0       0       0
   771 ;;      Temps:          0       0       0       0       0
   772 ;;      Totals:         0       1       0       0       0
   773 ;;Total ram usage:        1 bytes
   774 ;; Hardware stack levels used: 1
   775 ;; Hardware stack levels required when called: 3
   776 ;; This function calls:
   777 ;;		Nothing
   778 ;; This function is called by:
   779 ;;		_main
   780 ;; This function uses a non-reentrant model
   781 ;;
   782                           
   783     001E                     _setupINTOSC:	
   784                           ;psect for function _setupINTOSC
   785                           
   786                           
   787                           ;incstack = 0
   788                           ; Regs used in _setupINTOSC: [wreg+status,2+status,0]
   789                           ;setupINTOSC@IRCF stored from wreg
   790     001E  1283               	bcf	3,5	;RP0=0, select bank0
   791     001F  1303               	bcf	3,6	;RP1=0, select bank0
   792     0020  00A9               	movwf	setupINTOSC@IRCF
   793     0021                     l1177:
   794                           
   795                           ;../SLAVE1.X/oscilador.c: 11:     if (IRCF == 7){
   796     0021  3007               	movlw	7
   797     0022  0629               	xorwf	setupINTOSC@IRCF,w
   798     0023  1D03               	btfss	3,2
   799     0024  2826               	goto	u591
   800     0025  2827               	goto	u590
   801     0026                     u591:
   802     0026  282B               	goto	l135
   803     0027                     u590:
   804     0027                     l1179:
   805                           
   806                           ;../SLAVE1.X/oscilador.c: 12:         OSCCONbits.IRCF = 0b111;
   807     0027  3070               	movlw	112
   808     0028  1683               	bsf	3,5	;RP0=1, select bank1
   809     0029  1303               	bcf	3,6	;RP1=0, select bank1
   810     002A  048F               	iorwf	15,f	;volatile
   811     002B                     l135:	
   812                           ;../SLAVE1.X/oscilador.c: 13:     }
   813                           
   814                           
   815                           ;../SLAVE1.X/oscilador.c: 14:     if (IRCF == 6){
   816     002B  3006               	movlw	6
   817     002C  1283               	bcf	3,5	;RP0=0, select bank0
   818     002D  0629               	xorwf	setupINTOSC@IRCF,w
   819     002E  1D03               	btfss	3,2
   820     002F  2831               	goto	u601
   821     0030  2832               	goto	u600
   822     0031                     u601:
   823     0031  2838               	goto	l136
   824     0032                     u600:
   825     0032                     l1181:
   826                           
   827                           ;../SLAVE1.X/oscilador.c: 15:         OSCCONbits.IRCF = 0b110;
   828     0032  1683               	bsf	3,5	;RP0=1, select bank1
   829     0033  1303               	bcf	3,6	;RP1=0, select bank1
   830     0034  080F               	movf	15,w	;volatile
   831     0035  398F               	andlw	-113
   832     0036  3860               	iorlw	96
   833     0037  008F               	movwf	15	;volatile
   834     0038                     l136:	
   835                           ;../SLAVE1.X/oscilador.c: 16:     }
   836                           
   837                           
   838                           ;../SLAVE1.X/oscilador.c: 17:     if (IRCF == 5){
   839     0038  3005               	movlw	5
   840     0039  1283               	bcf	3,5	;RP0=0, select bank0
   841     003A  0629               	xorwf	setupINTOSC@IRCF,w
   842     003B  1D03               	btfss	3,2
   843     003C  283E               	goto	u611
   844     003D  283F               	goto	u610
   845     003E                     u611:
   846     003E  2845               	goto	l137
   847     003F                     u610:
   848     003F                     l1183:
   849                           
   850                           ;../SLAVE1.X/oscilador.c: 18:         OSCCONbits.IRCF = 0b101;
   851     003F  1683               	bsf	3,5	;RP0=1, select bank1
   852     0040  1303               	bcf	3,6	;RP1=0, select bank1
   853     0041  080F               	movf	15,w	;volatile
   854     0042  398F               	andlw	-113
   855     0043  3850               	iorlw	80
   856     0044  008F               	movwf	15	;volatile
   857     0045                     l137:	
   858                           ;../SLAVE1.X/oscilador.c: 19:     }
   859                           
   860                           
   861                           ;../SLAVE1.X/oscilador.c: 20:     if (IRCF == 4){
   862     0045  3004               	movlw	4
   863     0046  1283               	bcf	3,5	;RP0=0, select bank0
   864     0047  0629               	xorwf	setupINTOSC@IRCF,w
   865     0048  1D03               	btfss	3,2
   866     0049  284B               	goto	u621
   867     004A  284C               	goto	u620
   868     004B                     u621:
   869     004B  2852               	goto	l138
   870     004C                     u620:
   871     004C                     l1185:
   872                           
   873                           ;../SLAVE1.X/oscilador.c: 21:         OSCCONbits.IRCF = 0b100;
   874     004C  1683               	bsf	3,5	;RP0=1, select bank1
   875     004D  1303               	bcf	3,6	;RP1=0, select bank1
   876     004E  080F               	movf	15,w	;volatile
   877     004F  398F               	andlw	-113
   878     0050  3840               	iorlw	64
   879     0051  008F               	movwf	15	;volatile
   880     0052                     l138:	
   881                           ;../SLAVE1.X/oscilador.c: 22:     }
   882                           
   883                           
   884                           ;../SLAVE1.X/oscilador.c: 23:     if (IRCF == 3){
   885     0052  3003               	movlw	3
   886     0053  1283               	bcf	3,5	;RP0=0, select bank0
   887     0054  0629               	xorwf	setupINTOSC@IRCF,w
   888     0055  1D03               	btfss	3,2
   889     0056  2858               	goto	u631
   890     0057  2859               	goto	u630
   891     0058                     u631:
   892     0058  285F               	goto	l139
   893     0059                     u630:
   894     0059                     l1187:
   895                           
   896                           ;../SLAVE1.X/oscilador.c: 24:         OSCCONbits.IRCF = 0b011;
   897     0059  1683               	bsf	3,5	;RP0=1, select bank1
   898     005A  1303               	bcf	3,6	;RP1=0, select bank1
   899     005B  080F               	movf	15,w	;volatile
   900     005C  398F               	andlw	-113
   901     005D  3830               	iorlw	48
   902     005E  008F               	movwf	15	;volatile
   903     005F                     l139:	
   904                           ;../SLAVE1.X/oscilador.c: 25:     }
   905                           
   906                           
   907                           ;../SLAVE1.X/oscilador.c: 26:     if (IRCF == 2){
   908     005F  3002               	movlw	2
   909     0060  1283               	bcf	3,5	;RP0=0, select bank0
   910     0061  0629               	xorwf	setupINTOSC@IRCF,w
   911     0062  1D03               	btfss	3,2
   912     0063  2865               	goto	u641
   913     0064  2866               	goto	u640
   914     0065                     u641:
   915     0065  286C               	goto	l140
   916     0066                     u640:
   917     0066                     l1189:
   918                           
   919                           ;../SLAVE1.X/oscilador.c: 27:         OSCCONbits.IRCF = 0b010;
   920     0066  1683               	bsf	3,5	;RP0=1, select bank1
   921     0067  1303               	bcf	3,6	;RP1=0, select bank1
   922     0068  080F               	movf	15,w	;volatile
   923     0069  398F               	andlw	-113
   924     006A  3820               	iorlw	32
   925     006B  008F               	movwf	15	;volatile
   926     006C                     l140:	
   927                           ;../SLAVE1.X/oscilador.c: 28:     }
   928                           
   929                           
   930                           ;../SLAVE1.X/oscilador.c: 29:     if (IRCF == 1){
   931     006C  1283               	bcf	3,5	;RP0=0, select bank0
   932     006D  0329               	decf	setupINTOSC@IRCF,w
   933     006E  1D03               	btfss	3,2
   934     006F  2871               	goto	u651
   935     0070  2872               	goto	u650
   936     0071                     u651:
   937     0071  2878               	goto	l141
   938     0072                     u650:
   939     0072                     l1191:
   940                           
   941                           ;../SLAVE1.X/oscilador.c: 30:         OSCCONbits.IRCF = 0b001;
   942     0072  1683               	bsf	3,5	;RP0=1, select bank1
   943     0073  1303               	bcf	3,6	;RP1=0, select bank1
   944     0074  080F               	movf	15,w	;volatile
   945     0075  398F               	andlw	-113
   946     0076  3810               	iorlw	16
   947     0077  008F               	movwf	15	;volatile
   948     0078                     l141:	
   949                           ;../SLAVE1.X/oscilador.c: 31:     }
   950                           
   951                           
   952                           ;../SLAVE1.X/oscilador.c: 32:     if (IRCF == 0){
   953     0078  1283               	bcf	3,5	;RP0=0, select bank0
   954     0079  0829               	movf	setupINTOSC@IRCF,w
   955     007A  1D03               	btfss	3,2
   956     007B  287D               	goto	u661
   957     007C  287E               	goto	u660
   958     007D                     u661:
   959     007D  2882               	goto	l1195
   960     007E                     u660:
   961     007E                     l1193:
   962                           
   963                           ;../SLAVE1.X/oscilador.c: 33:         OSCCONbits.IRCF = 0b000;
   964     007E  308F               	movlw	-113
   965     007F  1683               	bsf	3,5	;RP0=1, select bank1
   966     0080  1303               	bcf	3,6	;RP1=0, select bank1
   967     0081  058F               	andwf	15,f	;volatile
   968     0082                     l1195:
   969                           
   970                           ;../SLAVE1.X/oscilador.c: 36:     OSCCONbits.SCS = 1;
   971     0082  1683               	bsf	3,5	;RP0=1, select bank1
   972     0083  1303               	bcf	3,6	;RP1=0, select bank1
   973     0084  140F               	bsf	15,0	;volatile
   974     0085                     l143:
   975     0085  0008               	return
   976     0086                     __end_of_setupINTOSC:
   977                           
   978                           	psect	text2
   979     021B                     __ptext2:	
   980 ;; *************** function _portsetup *****************
   981 ;; Defined at:
   982 ;;		line 127 in file "main.c"
   983 ;; Parameters:    Size  Location     Type
   984 ;;		None
   985 ;; Auto vars:     Size  Location     Type
   986 ;;		None
   987 ;; Return value:  Size  Location     Type
   988 ;;                  1    wreg      void 
   989 ;; Registers used:
   990 ;;		wreg, status,2, status,0, pclath, cstack
   991 ;; Tracked objects:
   992 ;;		On entry : 0/0
   993 ;;		On exit  : 0/0
   994 ;;		Unchanged: 0/0
   995 ;; Data sizes:     COMMON   BANK0   BANK1   BANK3   BANK2
   996 ;;      Params:         0       0       0       0       0
   997 ;;      Locals:         0       0       0       0       0
   998 ;;      Temps:          0       0       0       0       0
   999 ;;      Totals:         0       0       0       0       0
  1000 ;;Total ram usage:        0 bytes
  1001 ;; Hardware stack levels used: 1
  1002 ;; Hardware stack levels required when called: 4
  1003 ;; This function calls:
  1004 ;;		_I2C_Slave_Init
  1005 ;; This function is called by:
  1006 ;;		_main
  1007 ;; This function uses a non-reentrant model
  1008 ;;
  1009                           
  1010     021B                     _portsetup:	
  1011                           ;psect for function _portsetup
  1012                           
  1013     021B                     l1197:	
  1014                           ;incstack = 0
  1015                           ; Regs used in _portsetup: [wreg+status,2+status,0+pclath+cstack]
  1016                           
  1017                           
  1018                           ;main.c: 128:     ANSEL = 0;
  1019     021B  1683               	bsf	3,5	;RP0=1, select bank3
  1020     021C  1703               	bsf	3,6	;RP1=1, select bank3
  1021     021D  0188               	clrf	8	;volatile
  1022                           
  1023                           ;main.c: 129:     ANSELH = 0;
  1024     021E  0189               	clrf	9	;volatile
  1025     021F                     l1199:
  1026                           
  1027                           ;main.c: 132:     T1CONbits.TMR1CS = 0;
  1028     021F  1283               	bcf	3,5	;RP0=0, select bank0
  1029     0220  1303               	bcf	3,6	;RP1=0, select bank0
  1030     0221  1090               	bcf	16,1	;volatile
  1031     0222                     l1201:
  1032                           
  1033                           ;main.c: 133:     T1CONbits.T1CKPS = 0b01;
  1034     0222  0810               	movf	16,w	;volatile
  1035     0223  39CF               	andlw	-49
  1036     0224  3810               	iorlw	16
  1037     0225  0090               	movwf	16	;volatile
  1038     0226                     l1203:
  1039                           
  1040                           ;main.c: 134:     T1CONbits.TMR1ON = 0;
  1041     0226  1010               	bcf	16,0	;volatile
  1042     0227                     l1205:
  1043                           
  1044                           ;main.c: 135:     I2C_Slave_Init(0xa0);
  1045     0227  30A0               	movlw	160
  1046     0228  120A  118A  21E4  120A  118A  	fcall	_I2C_Slave_Init
  1047     022D                     l71:
  1048     022D  0008               	return
  1049     022E                     __end_of_portsetup:
  1050                           
  1051                           	psect	text3
  1052     01E4                     __ptext3:	
  1053 ;; *************** function _I2C_Slave_Init *****************
  1054 ;; Defined at:
  1055 ;;		line 93 in file "../SLAVE1.X/I2C.c"
  1056 ;; Parameters:    Size  Location     Type
  1057 ;;  address         1    wreg     unsigned char 
  1058 ;; Auto vars:     Size  Location     Type
  1059 ;;  address         1    0[BANK0 ] unsigned char 
  1060 ;; Return value:  Size  Location     Type
  1061 ;;                  1    wreg      void 
  1062 ;; Registers used:
  1063 ;;		wreg
  1064 ;; Tracked objects:
  1065 ;;		On entry : 0/0
  1066 ;;		On exit  : 0/0
  1067 ;;		Unchanged: 0/0
  1068 ;; Data sizes:     COMMON   BANK0   BANK1   BANK3   BANK2
  1069 ;;      Params:         0       0       0       0       0
  1070 ;;      Locals:         0       1       0       0       0
  1071 ;;      Temps:          0       0       0       0       0
  1072 ;;      Totals:         0       1       0       0       0
  1073 ;;Total ram usage:        1 bytes
  1074 ;; Hardware stack levels used: 1
  1075 ;; Hardware stack levels required when called: 3
  1076 ;; This function calls:
  1077 ;;		Nothing
  1078 ;; This function is called by:
  1079 ;;		_portsetup
  1080 ;; This function uses a non-reentrant model
  1081 ;;
  1082                           
  1083     01E4                     _I2C_Slave_Init:	
  1084                           ;psect for function _I2C_Slave_Init
  1085                           
  1086                           
  1087                           ;incstack = 0
  1088                           ; Regs used in _I2C_Slave_Init: [wreg]
  1089                           ;I2C_Slave_Init@address stored from wreg
  1090     01E4  1283               	bcf	3,5	;RP0=0, select bank0
  1091     01E5  1303               	bcf	3,6	;RP1=0, select bank0
  1092     01E6  00A9               	movwf	I2C_Slave_Init@address
  1093     01E7                     l1081:
  1094                           
  1095                           ;../SLAVE1.X/I2C.c: 93: void I2C_Slave_Init(uint8_t address);../SLAVE1.X/I2C.c: 94: {;..
      +                          /SLAVE1.X/I2C.c: 95:     SSPADD = address;
  1096     01E7  0829               	movf	I2C_Slave_Init@address,w
  1097     01E8  1683               	bsf	3,5	;RP0=1, select bank1
  1098     01E9  1303               	bcf	3,6	;RP1=0, select bank1
  1099     01EA  0093               	movwf	19	;volatile
  1100                           
  1101                           ;../SLAVE1.X/I2C.c: 96:     SSPCON = 0x36;
  1102     01EB  3036               	movlw	54
  1103     01EC  1283               	bcf	3,5	;RP0=0, select bank0
  1104     01ED  1303               	bcf	3,6	;RP1=0, select bank0
  1105     01EE  0094               	movwf	20	;volatile
  1106                           
  1107                           ;../SLAVE1.X/I2C.c: 97:     SSPSTAT = 0x80;
  1108     01EF  3080               	movlw	128
  1109     01F0  1683               	bsf	3,5	;RP0=1, select bank1
  1110     01F1  1303               	bcf	3,6	;RP1=0, select bank1
  1111     01F2  0094               	movwf	20	;volatile
  1112                           
  1113                           ;../SLAVE1.X/I2C.c: 98:     SSPCON2 = 0x01;
  1114     01F3  3001               	movlw	1
  1115     01F4  0091               	movwf	17	;volatile
  1116     01F5                     l1083:
  1117                           
  1118                           ;../SLAVE1.X/I2C.c: 99:     TRISC3 = 1;
  1119     01F5  1587               	bsf	7,3	;volatile
  1120     01F6                     l1085:
  1121                           
  1122                           ;../SLAVE1.X/I2C.c: 100:     TRISC4 = 1;
  1123     01F6  1607               	bsf	7,4	;volatile
  1124     01F7                     l1087:
  1125                           
  1126                           ;../SLAVE1.X/I2C.c: 101:     GIE = 1;
  1127     01F7  178B               	bsf	11,7	;volatile
  1128     01F8                     l1089:
  1129                           
  1130                           ;../SLAVE1.X/I2C.c: 102:     PEIE = 1;
  1131     01F8  170B               	bsf	11,6	;volatile
  1132     01F9                     l1091:
  1133                           
  1134                           ;../SLAVE1.X/I2C.c: 103:     SSPIF = 0;
  1135     01F9  1283               	bcf	3,5	;RP0=0, select bank0
  1136     01FA  1303               	bcf	3,6	;RP1=0, select bank0
  1137     01FB  118C               	bcf	12,3	;volatile
  1138     01FC                     l1093:
  1139                           
  1140                           ;../SLAVE1.X/I2C.c: 104:     SSPIE = 1;
  1141     01FC  1683               	bsf	3,5	;RP0=1, select bank1
  1142     01FD  1303               	bcf	3,6	;RP1=0, select bank1
  1143     01FE  158C               	bsf	12,3	;volatile
  1144     01FF                     l130:
  1145     01FF  0008               	return
  1146     0200                     __end_of_I2C_Slave_Init:
  1147                           
  1148                           	psect	text4
  1149     0086                     __ptext4:	
  1150 ;; *************** function _isr *****************
  1151 ;; Defined at:
  1152 ;;		line 68 in file "main.c"
  1153 ;; Parameters:    Size  Location     Type
  1154 ;;		None
  1155 ;; Auto vars:     Size  Location     Type
  1156 ;;		None
  1157 ;; Return value:  Size  Location     Type
  1158 ;;                  1    wreg      void 
  1159 ;; Registers used:
  1160 ;;		wreg, status,2, status,0, pclath, cstack
  1161 ;; Tracked objects:
  1162 ;;		On entry : 0/0
  1163 ;;		On exit  : 0/0
  1164 ;;		Unchanged: 0/0
  1165 ;; Data sizes:     COMMON   BANK0   BANK1   BANK3   BANK2
  1166 ;;      Params:         0       0       0       0       0
  1167 ;;      Locals:         0       0       0       0       0
  1168 ;;      Temps:          3       0       0       0       0
  1169 ;;      Totals:         3       0       0       0       0
  1170 ;;Total ram usage:        3 bytes
  1171 ;; Hardware stack levels used: 1
  1172 ;; Hardware stack levels required when called: 2
  1173 ;; This function calls:
  1174 ;;		_leer_temp
  1175 ;; This function is called by:
  1176 ;;		Interrupt level 1
  1177 ;; This function uses a non-reentrant model
  1178 ;;
  1179                           
  1180     0086                     _isr:	
  1181                           ;psect for function _isr
  1182                           
  1183     0086                     i1l1207:
  1184                           
  1185                           ;main.c: 69:     if(PIR1bits.SSPIF == 1){
  1186     0086  1283               	bcf	3,5	;RP0=0, select bank0
  1187     0087  1303               	bcf	3,6	;RP1=0, select bank0
  1188     0088  1D8C               	btfss	12,3	;volatile
  1189     0089  288B               	goto	u67_21
  1190     008A  288C               	goto	u67_20
  1191     008B                     u67_21:
  1192     008B  28E1               	goto	i1l60
  1193     008C                     u67_20:
  1194     008C                     i1l1209:
  1195                           
  1196                           ;main.c: 71:         SSPCONbits.CKP = 0;
  1197     008C  1214               	bcf	20,4	;volatile
  1198                           
  1199                           ;main.c: 73:         if ((SSPCONbits.SSPOV) || (SSPCONbits.WCOL)){
  1200     008D  1B14               	btfsc	20,6	;volatile
  1201     008E  2890               	goto	u68_21
  1202     008F  2891               	goto	u68_20
  1203     0090                     u68_21:
  1204     0090  2895               	goto	i1l1213
  1205     0091                     u68_20:
  1206     0091                     i1l1211:
  1207     0091  1F94               	btfss	20,7	;volatile
  1208     0092  2894               	goto	u69_21
  1209     0093  2895               	goto	u69_20
  1210     0094                     u69_21:
  1211     0094  289A               	goto	i1l1221
  1212     0095                     u69_20:
  1213     0095                     i1l1213:
  1214                           
  1215                           ;main.c: 74:             z = SSPBUF;
  1216     0095  0813               	movf	19,w	;volatile
  1217     0096  00A6               	movwf	_z
  1218     0097                     i1l1215:
  1219                           
  1220                           ;main.c: 75:             SSPCONbits.SSPOV = 0;
  1221     0097  1314               	bcf	20,6	;volatile
  1222     0098                     i1l1217:
  1223                           
  1224                           ;main.c: 76:             SSPCONbits.WCOL = 0;
  1225     0098  1394               	bcf	20,7	;volatile
  1226     0099                     i1l1219:
  1227                           
  1228                           ;main.c: 77:             SSPCONbits.CKP = 1;
  1229     0099  1614               	bsf	20,4	;volatile
  1230     009A                     i1l1221:
  1231                           
  1232                           ;main.c: 80:         if(!SSPSTATbits.D_nA && !SSPSTATbits.R_nW) {
  1233     009A  1683               	bsf	3,5	;RP0=1, select bank1
  1234     009B  1303               	bcf	3,6	;RP1=0, select bank1
  1235     009C  1A94               	btfsc	20,5	;volatile
  1236     009D  289F               	goto	u70_21
  1237     009E  28A0               	goto	u70_20
  1238     009F                     u70_21:
  1239     009F  28BA               	goto	i1l51
  1240     00A0                     u70_20:
  1241     00A0                     i1l1223:
  1242     00A0  1914               	btfsc	20,2	;volatile
  1243     00A1  28A3               	goto	u71_21
  1244     00A2  28A4               	goto	u71_20
  1245     00A3                     u71_21:
  1246     00A3  28BA               	goto	i1l51
  1247     00A4                     u71_20:
  1248     00A4                     i1l1225:
  1249                           
  1250                           ;main.c: 82:             z = SSPBUF;
  1251     00A4  1283               	bcf	3,5	;RP0=0, select bank0
  1252     00A5  1303               	bcf	3,6	;RP1=0, select bank0
  1253     00A6  0813               	movf	19,w	;volatile
  1254     00A7  00A6               	movwf	_z
  1255     00A8                     i1l1227:
  1256                           
  1257                           ;main.c: 84:             PIR1bits.SSPIF = 0;
  1258     00A8  118C               	bcf	12,3	;volatile
  1259     00A9                     i1l1229:
  1260                           
  1261                           ;main.c: 85:             SSPCONbits.CKP = 1;
  1262     00A9  1614               	bsf	20,4	;volatile
  1263     00AA                     i1l52:	
  1264                           ;main.c: 86:             while(!SSPSTATbits.BF);
  1265                           
  1266     00AA  1683               	bsf	3,5	;RP0=1, select bank1
  1267     00AB  1303               	bcf	3,6	;RP1=0, select bank1
  1268     00AC  1C14               	btfss	20,0	;volatile
  1269     00AD  28AF               	goto	u72_21
  1270     00AE  28B0               	goto	u72_20
  1271     00AF                     u72_21:
  1272     00AF  28AA               	goto	i1l52
  1273     00B0                     u72_20:
  1274     00B0                     i1l1231:
  1275                           
  1276                           ;main.c: 88:             dato = SSPBUF;
  1277     00B0  1283               	bcf	3,5	;RP0=0, select bank0
  1278     00B1  1303               	bcf	3,6	;RP1=0, select bank0
  1279     00B2  0813               	movf	19,w	;volatile
  1280     00B3  00A8               	movwf	_dato
  1281                           
  1282                           ;main.c: 89:             _delay((unsigned long)((250)*(8000000/4000000.0)));
  1283     00B4  30A6               	movlw	166
  1284     00B5  00FB               	movwf	??_isr
  1285     00B6                     u77_27:
  1286     00B6  0BFB               	decfsz	??_isr,f
  1287     00B7  28B6               	goto	u77_27
  1288     00B8  0000               	nop
  1289                           
  1290                           ;main.c: 91:         }else if(!SSPSTATbits.D_nA && SSPSTATbits.R_nW){
  1291     00B9  28DE               	goto	i1l55
  1292     00BA                     i1l51:
  1293     00BA  1A94               	btfsc	20,5	;volatile
  1294     00BB  28BD               	goto	u73_21
  1295     00BC  28BE               	goto	u73_20
  1296     00BD                     u73_21:
  1297     00BD  28DE               	goto	i1l55
  1298     00BE                     u73_20:
  1299     00BE                     i1l1233:
  1300     00BE  1D14               	btfss	20,2	;volatile
  1301     00BF  28C1               	goto	u74_21
  1302     00C0  28C2               	goto	u74_20
  1303     00C1                     u74_21:
  1304     00C1  28DE               	goto	i1l55
  1305     00C2                     u74_20:
  1306     00C2                     i1l1235:
  1307                           
  1308                           ;main.c: 92:             z = SSPBUF;
  1309     00C2  1283               	bcf	3,5	;RP0=0, select bank0
  1310     00C3  1303               	bcf	3,6	;RP1=0, select bank0
  1311     00C4  0813               	movf	19,w	;volatile
  1312     00C5  00A6               	movwf	_z
  1313     00C6                     i1l1237:
  1314                           
  1315                           ;main.c: 93:             SSPSTATbits.BF = 0;
  1316     00C6  1683               	bsf	3,5	;RP0=1, select bank1
  1317     00C7  1303               	bcf	3,6	;RP1=0, select bank1
  1318     00C8  1014               	bcf	20,0	;volatile
  1319     00C9                     i1l1239:
  1320                           
  1321                           ;main.c: 94:             leer_temp();
  1322     00C9  120A  118A  213B  120A  118A  	fcall	_leer_temp
  1323     00CE                     i1l1241:
  1324                           
  1325                           ;main.c: 95:             SSPBUF = temperaturai;
  1326     00CE  1283               	bcf	3,5	;RP0=0, select bank0
  1327     00CF  1303               	bcf	3,6	;RP1=0, select bank0
  1328     00D0  0827               	movf	_temperaturai,w
  1329     00D1  0093               	movwf	19	;volatile
  1330     00D2                     i1l1243:
  1331                           
  1332                           ;main.c: 96:             SSPCONbits.CKP = 1;
  1333     00D2  1614               	bsf	20,4	;volatile
  1334     00D3                     i1l1245:
  1335                           
  1336                           ;main.c: 97:             _delay((unsigned long)((250)*(8000000/4000000.0)));
  1337     00D3  30A6               	movlw	166
  1338     00D4  00FB               	movwf	??_isr
  1339     00D5                     u78_27:
  1340     00D5  0BFB               	decfsz	??_isr,f
  1341     00D6  28D5               	goto	u78_27
  1342     00D7  0000               	nop
  1343     00D8                     i1l57:	
  1344                           ;main.c: 98:             while(SSPSTATbits.BF);
  1345                           
  1346     00D8  1683               	bsf	3,5	;RP0=1, select bank1
  1347     00D9  1303               	bcf	3,6	;RP1=0, select bank1
  1348     00DA  1814               	btfsc	20,0	;volatile
  1349     00DB  28DD               	goto	u75_21
  1350     00DC  28DE               	goto	u75_20
  1351     00DD                     u75_21:
  1352     00DD  28D8               	goto	i1l57
  1353     00DE                     u75_20:
  1354     00DE                     i1l55:
  1355                           
  1356                           ;main.c: 102:         PIR1bits.SSPIF = 0;
  1357     00DE  1283               	bcf	3,5	;RP0=0, select bank0
  1358     00DF  1303               	bcf	3,6	;RP1=0, select bank0
  1359     00E0  118C               	bcf	12,3	;volatile
  1360     00E1                     i1l60:
  1361     00E1  087D               	movf	??_isr+2,w
  1362     00E2  008A               	movwf	10
  1363     00E3  0E7C               	swapf	??_isr+1,w
  1364     00E4  0083               	movwf	3
  1365     00E5  0EFE               	swapf	btemp,f
  1366     00E6  0E7E               	swapf	btemp,w
  1367     00E7  0009               	retfie
  1368     00E8                     __end_of_isr:
  1369                           
  1370                           	psect	intentry
  1371     0004                     __pintentry:	
  1372                           ;incstack = 0
  1373                           ; Regs used in _isr: [wreg+status,2+status,0+pclath+cstack]
  1374                           
  1375     0004                     interrupt_function:
  1376     007E                     saved_w	set	btemp
  1377     0004  00FE               	movwf	btemp
  1378     0005  0E03               	swapf	3,w
  1379     0006  00FC               	movwf	??_isr+1
  1380     0007  080A               	movf	10,w
  1381     0008  00FD               	movwf	??_isr+2
  1382     0009  120A  118A  2886   	ljmp	_isr
  1383                           
  1384                           	psect	text5
  1385     013B                     __ptext5:	
  1386 ;; *************** function _leer_temp *****************
  1387 ;; Defined at:
  1388 ;;		line 138 in file "main.c"
  1389 ;; Parameters:    Size  Location     Type
  1390 ;;		None
  1391 ;; Auto vars:     Size  Location     Type
  1392 ;;		None
  1393 ;; Return value:  Size  Location     Type
  1394 ;;                  1    wreg      void 
  1395 ;; Registers used:
  1396 ;;		wreg, status,2, status,0, pclath, cstack
  1397 ;; Tracked objects:
  1398 ;;		On entry : 0/0
  1399 ;;		On exit  : 0/0
  1400 ;;		Unchanged: 0/0
  1401 ;; Data sizes:     COMMON   BANK0   BANK1   BANK3   BANK2
  1402 ;;      Params:         0       0       0       0       0
  1403 ;;      Locals:         0       0       0       0       0
  1404 ;;      Temps:          3       0       0       0       0
  1405 ;;      Totals:         3       0       0       0       0
  1406 ;;Total ram usage:        3 bytes
  1407 ;; Hardware stack levels used: 1
  1408 ;; Hardware stack levels required when called: 1
  1409 ;; This function calls:
  1410 ;;		_DHT11_Read
  1411 ;;		_DHT11_Response
  1412 ;;		_DHT11_Start
  1413 ;; This function is called by:
  1414 ;;		_isr
  1415 ;; This function uses a non-reentrant model
  1416 ;;
  1417                           
  1418     013B                     _leer_temp:	
  1419                           ;psect for function _leer_temp
  1420                           
  1421     013B                     i1l1165:	
  1422                           ;incstack = 0
  1423                           ; Regs used in _leer_temp: [wreg+status,2+status,0+pclath+cstack]
  1424                           
  1425                           
  1426                           ;main.c: 139:     _delay((unsigned long)((800)*(8000000/4000.0)));
  1427     013B  3009               	movlw	9
  1428     013C  00FA               	movwf	??_leer_temp+2
  1429     013D  301E               	movlw	30
  1430     013E  00F9               	movwf	??_leer_temp+1
  1431     013F  30E4               	movlw	228
  1432     0140  00F8               	movwf	??_leer_temp
  1433     0141                     u79_27:
  1434     0141  0BF8               	decfsz	??_leer_temp,f
  1435     0142  2941               	goto	u79_27
  1436     0143  0BF9               	decfsz	??_leer_temp+1,f
  1437     0144  2941               	goto	u79_27
  1438     0145  0BFA               	decfsz	??_leer_temp+2,f
  1439     0146  2941               	goto	u79_27
  1440     0147  0000               	nop
  1441     0148                     i1l1167:
  1442                           
  1443                           ;main.c: 140:     DHT11_Start();
  1444     0148  120A  118A  2200  120A  118A  	fcall	_DHT11_Start
  1445     014D                     i1l1169:
  1446                           
  1447                           ;main.c: 141:     check = DHT11_Response();
  1448     014D  120A  118A  218A  120A  118A  	fcall	_DHT11_Response
  1449     0152  0870               	movf	?_DHT11_Response,w
  1450     0153  1283               	bcf	3,5	;RP0=0, select bank0
  1451     0154  1303               	bcf	3,6	;RP1=0, select bank0
  1452     0155  00A4               	movwf	_check
  1453     0156                     i1l1171:
  1454                           
  1455                           ;main.c: 143:     if(check == 1){
  1456     0156  0324               	decf	_check,w
  1457     0157  1D03               	btfss	3,2
  1458     0158  295A               	goto	u58_21
  1459     0159  295B               	goto	u58_20
  1460     015A                     u58_21:
  1461     015A  2989               	goto	i1l75
  1462     015B                     u58_20:
  1463     015B                     i1l1173:
  1464                           
  1465                           ;main.c: 144:         x = DHT11_Read();
  1466     015B  120A  118A  20E8  120A  118A  	fcall	_DHT11_Read
  1467     0160  0870               	movf	?_DHT11_Read,w
  1468     0161  1283               	bcf	3,5	;RP0=0, select bank0
  1469     0162  1303               	bcf	3,6	;RP1=0, select bank0
  1470     0163  00A5               	movwf	_x
  1471                           
  1472                           ;main.c: 145:         x = DHT11_Read();
  1473     0164  120A  118A  20E8  120A  118A  	fcall	_DHT11_Read
  1474     0169  0870               	movf	?_DHT11_Read,w
  1475     016A  1283               	bcf	3,5	;RP0=0, select bank0
  1476     016B  1303               	bcf	3,6	;RP1=0, select bank0
  1477     016C  00A5               	movwf	_x
  1478                           
  1479                           ;main.c: 146:         temperaturai = DHT11_Read();
  1480     016D  120A  118A  20E8  120A  118A  	fcall	_DHT11_Read
  1481     0172  0870               	movf	?_DHT11_Read,w
  1482     0173  1283               	bcf	3,5	;RP0=0, select bank0
  1483     0174  1303               	bcf	3,6	;RP1=0, select bank0
  1484     0175  00A7               	movwf	_temperaturai
  1485                           
  1486                           ;main.c: 147:         x = DHT11_Read();
  1487     0176  120A  118A  20E8  120A  118A  	fcall	_DHT11_Read
  1488     017B  0870               	movf	?_DHT11_Read,w
  1489     017C  1283               	bcf	3,5	;RP0=0, select bank0
  1490     017D  1303               	bcf	3,6	;RP1=0, select bank0
  1491     017E  00A5               	movwf	_x
  1492                           
  1493                           ;main.c: 148:         x = DHT11_Read();
  1494     017F  120A  118A  20E8  120A  118A  	fcall	_DHT11_Read
  1495     0184  0870               	movf	?_DHT11_Read,w
  1496     0185  1283               	bcf	3,5	;RP0=0, select bank0
  1497     0186  1303               	bcf	3,6	;RP1=0, select bank0
  1498     0187  00A5               	movwf	_x
  1499     0188                     i1l1175:
  1500                           
  1501                           ;main.c: 149:         T1CONbits.TMR1ON = 0;
  1502     0188  1010               	bcf	16,0	;volatile
  1503     0189                     i1l75:
  1504     0189  0008               	return
  1505     018A                     __end_of_leer_temp:
  1506                           
  1507                           	psect	text6
  1508     0200                     __ptext6:	
  1509 ;; *************** function _DHT11_Start *****************
  1510 ;; Defined at:
  1511 ;;		line 11 in file "dht11.c"
  1512 ;; Parameters:    Size  Location     Type
  1513 ;;		None
  1514 ;; Auto vars:     Size  Location     Type
  1515 ;;		None
  1516 ;; Return value:  Size  Location     Type
  1517 ;;                  1    wreg      void 
  1518 ;; Registers used:
  1519 ;;		wreg
  1520 ;; Tracked objects:
  1521 ;;		On entry : 0/0
  1522 ;;		On exit  : 0/0
  1523 ;;		Unchanged: 0/0
  1524 ;; Data sizes:     COMMON   BANK0   BANK1   BANK3   BANK2
  1525 ;;      Params:         0       0       0       0       0
  1526 ;;      Locals:         0       0       0       0       0
  1527 ;;      Temps:          2       0       0       0       0
  1528 ;;      Totals:         2       0       0       0       0
  1529 ;;Total ram usage:        2 bytes
  1530 ;; Hardware stack levels used: 1
  1531 ;; This function calls:
  1532 ;;		Nothing
  1533 ;; This function is called by:
  1534 ;;		_leer_temp
  1535 ;; This function uses a non-reentrant model
  1536 ;;
  1537                           
  1538     0200                     _DHT11_Start:	
  1539                           ;psect for function _DHT11_Start
  1540                           
  1541     0200                     i1l1095:	
  1542                           ;incstack = 0
  1543                           ; Regs used in _DHT11_Start: [wreg]
  1544                           
  1545                           
  1546                           ;dht11.c: 12:     TRISDbits.TRISD0 = 0;
  1547     0200  1683               	bsf	3,5	;RP0=1, select bank1
  1548     0201  1303               	bcf	3,6	;RP1=0, select bank1
  1549     0202  1008               	bcf	8,0	;volatile
  1550                           
  1551                           ;dht11.c: 13:     PORTDbits.RD0 = 0;
  1552     0203  1283               	bcf	3,5	;RP0=0, select bank0
  1553     0204  1303               	bcf	3,6	;RP1=0, select bank0
  1554     0205  1008               	bcf	8,0	;volatile
  1555     0206                     i1l1097:
  1556                           
  1557                           ;dht11.c: 14:     _delay((unsigned long)((25)*(8000000/4000.0)));
  1558     0206  3041               	movlw	65
  1559     0207  00F1               	movwf	??_DHT11_Start+1
  1560     0208  30EE               	movlw	238
  1561     0209  00F0               	movwf	??_DHT11_Start
  1562     020A                     u80_27:
  1563     020A  0BF0               	decfsz	??_DHT11_Start,f
  1564     020B  2A0A               	goto	u80_27
  1565     020C  0BF1               	decfsz	??_DHT11_Start+1,f
  1566     020D  2A0A               	goto	u80_27
  1567     020E  0000               	nop
  1568     020F                     i1l1099:
  1569                           
  1570                           ;dht11.c: 15:     PORTDbits.RD0 = 1;
  1571     020F  1283               	bcf	3,5	;RP0=0, select bank0
  1572     0210  1303               	bcf	3,6	;RP1=0, select bank0
  1573     0211  1408               	bsf	8,0	;volatile
  1574                           
  1575                           ;dht11.c: 16:     _delay((unsigned long)((25)*(8000000/4000000.0)));
  1576     0212  3010               	movlw	16
  1577     0213  00F0               	movwf	??_DHT11_Start
  1578     0214                     u81_27:
  1579     0214  0BF0               	decfsz	??_DHT11_Start,f
  1580     0215  2A14               	goto	u81_27
  1581     0216  0000               	nop
  1582     0217                     i1l1101:
  1583                           
  1584                           ;dht11.c: 17:     TRISDbits.TRISD0 = 1;
  1585     0217  1683               	bsf	3,5	;RP0=1, select bank1
  1586     0218  1303               	bcf	3,6	;RP1=0, select bank1
  1587     0219  1408               	bsf	8,0	;volatile
  1588     021A                     i1l195:
  1589     021A  0008               	return
  1590     021B                     __end_of_DHT11_Start:
  1591                           
  1592                           	psect	text7
  1593     018A                     __ptext7:	
  1594 ;; *************** function _DHT11_Response *****************
  1595 ;; Defined at:
  1596 ;;		line 20 in file "dht11.c"
  1597 ;; Parameters:    Size  Location     Type
  1598 ;;		None
  1599 ;; Auto vars:     Size  Location     Type
  1600 ;;		None
  1601 ;; Return value:  Size  Location     Type
  1602 ;;                  2    0[COMMON] int 
  1603 ;; Registers used:
  1604 ;;		wreg, status,2
  1605 ;; Tracked objects:
  1606 ;;		On entry : 0/0
  1607 ;;		On exit  : 0/0
  1608 ;;		Unchanged: 0/0
  1609 ;; Data sizes:     COMMON   BANK0   BANK1   BANK3   BANK2
  1610 ;;      Params:         2       0       0       0       0
  1611 ;;      Locals:         0       0       0       0       0
  1612 ;;      Temps:          0       0       0       0       0
  1613 ;;      Totals:         2       0       0       0       0
  1614 ;;Total ram usage:        2 bytes
  1615 ;; Hardware stack levels used: 1
  1616 ;; This function calls:
  1617 ;;		Nothing
  1618 ;; This function is called by:
  1619 ;;		_leer_temp
  1620 ;; This function uses a non-reentrant model
  1621 ;;
  1622                           
  1623     018A                     _DHT11_Response:	
  1624                           ;psect for function _DHT11_Response
  1625                           
  1626     018A                     i1l1103:	
  1627                           ;incstack = 0
  1628                           ; Regs used in _DHT11_Response: [wreg+status,2]
  1629                           
  1630                           
  1631                           ;dht11.c: 21:     timeout=0;
  1632     018A  1283               	bcf	3,5	;RP0=0, select bank0
  1633     018B  1303               	bcf	3,6	;RP1=0, select bank0
  1634     018C  01A0               	clrf	_timeout
  1635     018D  01A1               	clrf	_timeout+1
  1636                           
  1637                           ;dht11.c: 22:     TMR1 = 0;
  1638     018E  018E               	clrf	14	;volatile
  1639     018F  018F               	clrf	15	;volatile
  1640     0190                     i1l1105:
  1641                           
  1642                           ;dht11.c: 23:     T1CONbits.TMR1ON = 1;
  1643     0190  1410               	bsf	16,0	;volatile
  1644     0191                     i1l198:	
  1645                           ;dht11.c: 24:     while(!PORTDbits.RD0 && TMR1 < 100);
  1646                           
  1647     0191  1808               	btfsc	8,0	;volatile
  1648     0192  2994               	goto	u45_21
  1649     0193  2995               	goto	u45_20
  1650     0194                     u45_21:
  1651     0194  299E               	goto	i1l1109
  1652     0195                     u45_20:
  1653     0195                     i1l1107:
  1654     0195  3000               	movlw	0
  1655     0196  020F               	subwf	15,w	;volatile
  1656     0197  3064               	movlw	100
  1657     0198  1903               	skipnz
  1658     0199  020E               	subwf	14,w	;volatile
  1659     019A  1C03               	skipc
  1660     019B  299D               	goto	u46_21
  1661     019C  299E               	goto	u46_20
  1662     019D                     u46_21:
  1663     019D  2991               	goto	i1l198
  1664     019E                     u46_20:
  1665     019E                     i1l1109:
  1666                           
  1667                           ;dht11.c: 25:         if(TMR1 > 99){
  1668     019E  3000               	movlw	0
  1669     019F  020F               	subwf	15,w	;volatile
  1670     01A0  3064               	movlw	100
  1671     01A1  1903               	skipnz
  1672     01A2  020E               	subwf	14,w	;volatile
  1673     01A3  1C03               	skipc
  1674     01A4  29A6               	goto	u47_21
  1675     01A5  29A7               	goto	u47_20
  1676     01A6                     u47_21:
  1677     01A6  29AA               	goto	i1l1117
  1678     01A7                     u47_20:
  1679     01A7                     i1l1111:
  1680                           
  1681                           ;dht11.c: 26:             return 0;
  1682     01A7  01F0               	clrf	?_DHT11_Response
  1683     01A8  01F1               	clrf	?_DHT11_Response+1
  1684     01A9  29C7               	goto	i1l204
  1685     01AA                     i1l1117:
  1686                           
  1687                           ;dht11.c: 29:             TMR1 = 0;
  1688     01AA  018E               	clrf	14	;volatile
  1689     01AB  018F               	clrf	15	;volatile
  1690     01AC                     i1l206:	
  1691                           ;dht11.c: 30:             while(PORTDbits.RD0 && TMR1 < 100);
  1692                           
  1693     01AC  1C08               	btfss	8,0	;volatile
  1694     01AD  29AF               	goto	u48_21
  1695     01AE  29B0               	goto	u48_20
  1696     01AF                     u48_21:
  1697     01AF  29B9               	goto	i1l1121
  1698     01B0                     u48_20:
  1699     01B0                     i1l1119:
  1700     01B0  3000               	movlw	0
  1701     01B1  020F               	subwf	15,w	;volatile
  1702     01B2  3064               	movlw	100
  1703     01B3  1903               	skipnz
  1704     01B4  020E               	subwf	14,w	;volatile
  1705     01B5  1C03               	skipc
  1706     01B6  29B8               	goto	u49_21
  1707     01B7  29B9               	goto	u49_20
  1708     01B8                     u49_21:
  1709     01B8  29AC               	goto	i1l206
  1710     01B9                     u49_20:
  1711     01B9                     i1l1121:
  1712                           
  1713                           ;dht11.c: 31:             if(TMR1 > 99){
  1714     01B9  3000               	movlw	0
  1715     01BA  020F               	subwf	15,w	;volatile
  1716     01BB  3064               	movlw	100
  1717     01BC  1903               	skipnz
  1718     01BD  020E               	subwf	14,w	;volatile
  1719     01BE  1C03               	skipc
  1720     01BF  29C1               	goto	u50_21
  1721     01C0  29C2               	goto	u50_20
  1722     01C1                     u50_21:
  1723     01C1  29C3               	goto	i1l1129
  1724     01C2                     u50_20:
  1725     01C2  29A7               	goto	i1l1111
  1726     01C3                     i1l1129:
  1727                           
  1728                           ;dht11.c: 35:                 return 1;
  1729     01C3  3001               	movlw	1
  1730     01C4  00F0               	movwf	?_DHT11_Response
  1731     01C5  3000               	movlw	0
  1732     01C6  00F1               	movwf	?_DHT11_Response+1
  1733     01C7                     i1l204:
  1734     01C7  0008               	return
  1735     01C8                     __end_of_DHT11_Response:
  1736                           
  1737                           	psect	text8
  1738     00E8                     __ptext8:	
  1739 ;; *************** function _DHT11_Read *****************
  1740 ;; Defined at:
  1741 ;;		line 40 in file "dht11.c"
  1742 ;; Parameters:    Size  Location     Type
  1743 ;;		None
  1744 ;; Auto vars:     Size  Location     Type
  1745 ;;  _data           2    5[COMMON] unsigned int 
  1746 ;;  i               1    7[COMMON] unsigned char 
  1747 ;; Return value:  Size  Location     Type
  1748 ;;                  2    0[COMMON] unsigned int 
  1749 ;; Registers used:
  1750 ;;		wreg, status,2, status,0
  1751 ;; Tracked objects:
  1752 ;;		On entry : 0/0
  1753 ;;		On exit  : 0/0
  1754 ;;		Unchanged: 0/0
  1755 ;; Data sizes:     COMMON   BANK0   BANK1   BANK3   BANK2
  1756 ;;      Params:         2       0       0       0       0
  1757 ;;      Locals:         3       0       0       0       0
  1758 ;;      Temps:          3       0       0       0       0
  1759 ;;      Totals:         8       0       0       0       0
  1760 ;;Total ram usage:        8 bytes
  1761 ;; Hardware stack levels used: 1
  1762 ;; This function calls:
  1763 ;;		Nothing
  1764 ;; This function is called by:
  1765 ;;		_leer_temp
  1766 ;; This function uses a non-reentrant model
  1767 ;;
  1768                           
  1769     00E8                     _DHT11_Read:	
  1770                           ;psect for function _DHT11_Read
  1771                           
  1772     00E8                     i1l1133:	
  1773                           ;incstack = 0
  1774                           ; Regs used in _DHT11_Read: [wreg+status,2+status,0]
  1775                           
  1776                           
  1777                           ;dht11.c: 41:     uint8_t i;;dht11.c: 42:     unsigned int _data = 0;
  1778     00E8  01F5               	clrf	DHT11_Read@_data
  1779     00E9  01F6               	clrf	DHT11_Read@_data+1
  1780     00EA                     i1l1137:
  1781                           
  1782                           ;dht11.c: 47:     for(i = 0; i < 8; i++){
  1783     00EA  01F7               	clrf	DHT11_Read@i
  1784     00EB                     i1l1143:
  1785                           
  1786                           ;dht11.c: 48:         TMR1 = 0;
  1787     00EB  1283               	bcf	3,5	;RP0=0, select bank0
  1788     00EC  1303               	bcf	3,6	;RP1=0, select bank0
  1789     00ED  018E               	clrf	14	;volatile
  1790     00EE  018F               	clrf	15	;volatile
  1791     00EF                     i1l218:	
  1792                           ;dht11.c: 49:         while(!PORTDbits.RD0);
  1793                           
  1794     00EF  1C08               	btfss	8,0	;volatile
  1795     00F0  28F2               	goto	u51_21
  1796     00F1  28F3               	goto	u51_20
  1797     00F2                     u51_21:
  1798     00F2  28EF               	goto	i1l218
  1799     00F3                     u51_20:
  1800     00F3                     i1l1145:
  1801                           
  1802                           ;dht11.c: 50:         if(TMR1 > 100){
  1803     00F3  3000               	movlw	0
  1804     00F4  020F               	subwf	15,w	;volatile
  1805     00F5  3065               	movlw	101
  1806     00F6  1903               	skipnz
  1807     00F7  020E               	subwf	14,w	;volatile
  1808     00F8  1C03               	skipc
  1809     00F9  28FB               	goto	u52_21
  1810     00FA  28FC               	goto	u52_20
  1811     00FB                     u52_21:
  1812     00FB  2901               	goto	i1l1149
  1813     00FC                     u52_20:
  1814     00FC                     i1l1147:
  1815                           
  1816                           ;dht11.c: 51:             timeout = 1;
  1817     00FC  3001               	movlw	1
  1818     00FD  00A0               	movwf	_timeout
  1819     00FE  3000               	movlw	0
  1820     00FF  00A1               	movwf	_timeout+1
  1821                           
  1822                           ;dht11.c: 52:             break;
  1823     0100  2936               	goto	i1l1161
  1824     0101                     i1l1149:
  1825                           
  1826                           ;dht11.c: 54:         TMR1 = 0;
  1827     0101  018E               	clrf	14	;volatile
  1828     0102  018F               	clrf	15	;volatile
  1829     0103                     i1l222:	
  1830                           ;dht11.c: 55:         while(PORTDbits.RD0);
  1831                           
  1832     0103  1808               	btfsc	8,0	;volatile
  1833     0104  2906               	goto	u53_21
  1834     0105  2907               	goto	u53_20
  1835     0106                     u53_21:
  1836     0106  2903               	goto	i1l222
  1837     0107                     u53_20:
  1838     0107                     i1l1151:
  1839                           
  1840                           ;dht11.c: 56:         if(TMR1 > 100){
  1841     0107  3000               	movlw	0
  1842     0108  020F               	subwf	15,w	;volatile
  1843     0109  3065               	movlw	101
  1844     010A  1903               	skipnz
  1845     010B  020E               	subwf	14,w	;volatile
  1846     010C  1C03               	skipc
  1847     010D  290F               	goto	u54_21
  1848     010E  2910               	goto	u54_20
  1849     010F                     u54_21:
  1850     010F  2911               	goto	i1l1155
  1851     0110                     u54_20:
  1852     0110  28FC               	goto	i1l1147
  1853     0111                     i1l1155:
  1854                           
  1855                           ;dht11.c: 60:         if(TMR1 > 50){
  1856     0111  3000               	movlw	0
  1857     0112  020F               	subwf	15,w	;volatile
  1858     0113  3033               	movlw	51
  1859     0114  1903               	skipnz
  1860     0115  020E               	subwf	14,w	;volatile
  1861     0116  1C03               	skipc
  1862     0117  2919               	goto	u55_21
  1863     0118  291A               	goto	u55_20
  1864     0119                     u55_21:
  1865     0119  292C               	goto	i1l226
  1866     011A                     u55_20:
  1867     011A                     i1l1157:
  1868                           
  1869                           ;dht11.c: 62:             _data|= (1 << (7 - i));
  1870     011A  0877               	movf	DHT11_Read@i,w
  1871     011B  3C07               	sublw	7
  1872     011C  00F2               	movwf	??_DHT11_Read
  1873     011D  0AF2               	incf	??_DHT11_Read,f
  1874     011E  3001               	movlw	1
  1875     011F  00F3               	movwf	??_DHT11_Read+1
  1876     0120  3000               	movlw	0
  1877     0121  00F4               	movwf	??_DHT11_Read+2
  1878     0122  2926               	goto	u56_24
  1879     0123                     u56_25:
  1880     0123  1003               	clrc
  1881     0124  0DF3               	rlf	??_DHT11_Read+1,f
  1882     0125  0DF4               	rlf	??_DHT11_Read+2,f
  1883     0126                     u56_24:
  1884     0126  0BF2               	decfsz	??_DHT11_Read,f
  1885     0127  2923               	goto	u56_25
  1886     0128  0873               	movf	??_DHT11_Read+1,w
  1887     0129  04F5               	iorwf	DHT11_Read@_data,f
  1888     012A  0874               	movf	??_DHT11_Read+2,w
  1889     012B  04F6               	iorwf	DHT11_Read@_data+1,f
  1890     012C                     i1l226:	
  1891                           ;dht11.c: 63:         }
  1892                           
  1893                           
  1894                           ;dht11.c: 64:   }
  1895     012C  3001               	movlw	1
  1896     012D  00F2               	movwf	??_DHT11_Read
  1897     012E  0872               	movf	??_DHT11_Read,w
  1898     012F  07F7               	addwf	DHT11_Read@i,f
  1899     0130                     i1l1159:
  1900     0130  3008               	movlw	8
  1901     0131  0277               	subwf	DHT11_Read@i,w
  1902     0132  1C03               	skipc
  1903     0133  2935               	goto	u57_21
  1904     0134  2936               	goto	u57_20
  1905     0135                     u57_21:
  1906     0135  28EB               	goto	i1l1143
  1907     0136                     u57_20:
  1908     0136                     i1l1161:
  1909                           
  1910                           ;dht11.c: 65:   return _data;
  1911     0136  0876               	movf	DHT11_Read@_data+1,w
  1912     0137  00F1               	movwf	?_DHT11_Read+1
  1913     0138  0875               	movf	DHT11_Read@_data,w
  1914     0139  00F0               	movwf	?_DHT11_Read
  1915     013A                     i1l227:
  1916     013A  0008               	return
  1917     013B                     __end_of_DHT11_Read:
  1918     007E                     btemp	set	126	;btemp
  1919     007E                     wtemp0	set	126
  1920                           
  1921                           	psect	idloc
  1922                           
  1923                           ;Config register IDLOC0 @ 0x2000
  1924                           ;	unspecified, using default values
  1925     2000                     	org	8192
  1926     2000  3FFF               	dw	16383
  1927                           
  1928                           ;Config register IDLOC1 @ 0x2001
  1929                           ;	unspecified, using default values
  1930     2001                     	org	8193
  1931     2001  3FFF               	dw	16383
  1932                           
  1933                           ;Config register IDLOC2 @ 0x2002
  1934                           ;	unspecified, using default values
  1935     2002                     	org	8194
  1936     2002  3FFF               	dw	16383
  1937                           
  1938                           ;Config register IDLOC3 @ 0x2003
  1939                           ;	unspecified, using default values
  1940     2003                     	org	8195
  1941     2003  3FFF               	dw	16383
  1942                           
  1943                           	psect	config
  1944                           
  1945                           ;Config register CONFIG1 @ 0x2007
  1946                           ;	Oscillator Selection bits
  1947                           ;	FOSC = INTRC_NOCLKOUT, INTOSCIO oscillator: I/O function on RA6/OSC2/CLKOUT pin, I/O f
      +                          unction on RA7/OSC1/CLKIN
  1948                           ;	Watchdog Timer Enable bit
  1949                           ;	WDTE = OFF, WDT disabled and can be enabled by SWDTEN bit of the WDTCON register
  1950                           ;	Power-up Timer Enable bit
  1951                           ;	PWRTE = OFF, PWRT disabled
  1952                           ;	RE3/MCLR pin function select bit
  1953                           ;	MCLRE = OFF, RE3/MCLR pin function is digital input, MCLR internally tied to VDD
  1954                           ;	Code Protection bit
  1955                           ;	CP = OFF, Program memory code protection is disabled
  1956                           ;	Data Code Protection bit
  1957                           ;	CPD = OFF, Data memory code protection is disabled
  1958                           ;	Brown Out Reset Selection bits
  1959                           ;	BOREN = OFF, BOR disabled
  1960                           ;	Internal External Switchover bit
  1961                           ;	IESO = OFF, Internal/External Switchover mode is disabled
  1962                           ;	Fail-Safe Clock Monitor Enabled bit
  1963                           ;	FCMEN = OFF, Fail-Safe Clock Monitor is disabled
  1964                           ;	Low Voltage Programming Enable bit
  1965                           ;	LVP = OFF, RB3 pin has digital I/O, HV on MCLR must be used for programming
  1966                           ;	In-Circuit Debugger Mode bit
  1967                           ;	DEBUG = 0x1, unprogramme  1968     2007                     	org	8199
  1969     2007  20D4               	dw	8404
  1970                           
  1971                           ;Config register CONFIG2 @ 0x2008
  1972                           ;	Brown-out Reset Selection bit
  1973                           ;	BOR4V = BOR40V, Brown-out Reset set to 4.0V
  1974                           ;	Flash Program Memory Self Write Enable bits
  1975                           ;	WRT = OFF, Write protection off
  1976     2008                     	org	8200
  1977     2008  3FFF               	dw	16383

Data Sizes:
    Strings     0
    Constant    0
    Data        0
    BSS         9
    Persistent  0
    Stack       0

Auto Spaces:
    Space          Size  Autos    Used
    COMMON           14     14      14
    BANK0            80      3      12
    BANK1            80      0       0
    BANK3            96      0       0
    BANK2            96      0       0

Pointer List with Targets:

    None.

Critical Paths under _main in COMMON

    None.

Critical Paths under _isr in COMMON

    _isr->_leer_temp
    _leer_temp->_DHT11_Read

Critical Paths under _main in BANK0

    _main->_setupINTOSC
    _portsetup->_I2C_Slave_Init

Critical Paths under _isr in BANK0

    None.

Critical Paths under _main in BANK1

    None.

Critical Paths under _isr in BANK1

    None.

Critical Paths under _main in BANK3

    None.

Critical Paths under _isr in BANK3

    None.

Critical Paths under _main in BANK2

    None.

Critical Paths under _isr in BANK2

    None.

Call Graph Tables:

 ---------------------------------------------------------------------------------
 (Depth) Function   	        Calls       Base Space   Used Autos Params    Refs
 ---------------------------------------------------------------------------------
 (0) _main                                                 2     2      0     198
                                              1 BANK0      2     2      0
                          _portsetup
                        _setupINTOSC
 ---------------------------------------------------------------------------------
 (1) _setupINTOSC                                          1     1      0     176
                                              0 BANK0      1     1      0
 ---------------------------------------------------------------------------------
 (1) _portsetup                                            0     0      0      22
                     _I2C_Slave_Init
 ---------------------------------------------------------------------------------
 (2) _I2C_Slave_Init                                       1     1      0      22
                                              0 BANK0      1     1      0
 ---------------------------------------------------------------------------------
 Estimated maximum stack depth 2
 ---------------------------------------------------------------------------------
 (Depth) Function   	        Calls       Base Space   Used Autos Params    Refs
 ---------------------------------------------------------------------------------
 (3) _isr                                                  3     3      0      92
                                             11 COMMON     3     3      0
                          _leer_temp
 ---------------------------------------------------------------------------------
 (4) _leer_temp                                            3     3      0      92
                                              8 COMMON     3     3      0
                         _DHT11_Read
                     _DHT11_Response
                        _DHT11_Start
 ---------------------------------------------------------------------------------
 (5) _DHT11_Start                                          2     2      0       0
                                              0 COMMON     2     2      0
 ---------------------------------------------------------------------------------
 (5) _DHT11_Response                                       2     0      2       0
                                              0 COMMON     2     0      2
 ---------------------------------------------------------------------------------
 (5) _DHT11_Read                                           8     6      2      92
                                              0 COMMON     8     6      2
 ---------------------------------------------------------------------------------
 Estimated maximum stack depth 5
 ---------------------------------------------------------------------------------

 Call Graph Graphs:

 _main (ROOT)
   _portsetup
     _I2C_Slave_Init
   _setupINTOSC

 _isr (ROOT)
   _leer_temp
     _DHT11_Read
     _DHT11_Response
     _DHT11_Start

 Address spaces:
Name               Size   Autos  Total    Cost      Usage
BITCOMMON            E      0       0       0        0.0%
EEDATA             100      0       0       0        0.0%
NULL                 0      0       0       0        0.0%
CODE                 0      0       0       0        0.0%
COMMON               E      E       E       1      100.0%
BITSFR0              0      0       0       1        0.0%
SFR0                 0      0       0       1        0.0%
BITSFR1              0      0       0       2        0.0%
SFR1                 0      0       0       2        0.0%
STACK                0      0       0       2        0.0%
ABS                  0      0      1A       3        0.0%
BITBANK0            50      0       0       4        0.0%
BITSFR3              0      0       0       4        0.0%
SFR3                 0      0       0       4        0.0%
BANK0               50      3       C       5       15.0%
BITSFR2              0      0       0       5        0.0%
SFR2                 0      0       0       5        0.0%
BITBANK1            50      0       0       6        0.0%
BANK1               50      0       0       7        0.0%
BITBANK3            60      0       0       8        0.0%
BANK3               60      0       0       9        0.0%
BITBANK2            60      0       0      10        0.0%
BANK2               60      0       0      11        0.0%
DATA                 0      0      1A      12        0.0%


Microchip Technology PIC Macro Assembler V2.40 build 20220703182018 
Symbol Table                                                                                   Wed Mar 08 12:30:52 2023

                      _x 0025                        _z 0026              _SSPSTATbits 0094  
                     l71 022D                      l130 01FF                      l140 006C  
                    l141 0078                      l143 0085                      l135 002B  
                    l136 0038                      l137 0045                      l138 0052  
                    l139 005F                      _GIE 005F                      u600 0032  
                    u601 0031                      u610 003F                      u611 003E  
                    u620 004C                      u621 004B                      u630 0059  
                    u631 0058                      u640 0066                      u641 0065  
                    u650 0072                      u651 0071                      u660 007E  
                    u661 007D                      u590 0027                      u591 0026  
                    u767 01DC                      _isr 0086                     l1201 0222  
                   l1203 0226                     l1205 0227                     l1081 01E7  
                   l1091 01F9                     l1083 01F5                     l1251 01D6  
                   l1093 01FC                     l1085 01F6                     l1181 0032  
                   l1087 01F7                     l1191 0072                     l1183 003F  
                   l1247 01C8                     l1089 01F8                     l1193 007E  
                   l1185 004C                     l1177 0021                     l1249 01D3  
                   l1195 0082                     l1187 0059                     l1179 0027  
                   l1197 021B                     l1189 0066                     l1199 021F  
                   _ADIF 0066                     ?_isr 0070                     _PEIE 005E  
                   i1l51 00BA                     i1l52 00AA                     i1l60 00E1  
                   i1l55 00DE                     i1l57 00D8                     i1l75 0189  
                   _TMR1 000E                     _dato 0028                     _main 01C8  
                   btemp 007E                     start 000C                    ??_isr 007B  
       ??_DHT11_Response 0072                    ?_main 0070                    _ANSEL 0188  
                  i1l204 01C7                    i1l222 0103                    i1l206 01AC  
                  i1l226 012C                    i1l218 00EF                    i1l227 013A  
                  i1l195 021A                    i1l198 0191                    u50_20 01C2  
                  u50_21 01C1                    u51_20 00F3                    u51_21 00F2  
                  u52_20 00FC                    u52_21 00FB                    u53_20 0107  
                  u45_20 0195                    u53_21 0106                    u45_21 0194  
                  u54_20 0110                    u46_20 019E                    u70_20 00A0  
                  u54_21 010F                    u46_21 019D                    u70_21 009F  
                  u55_20 011A                    u47_20 01A7                    u71_20 00A4  
                  u55_21 0119                    u47_21 01A6                    u71_21 00A3  
                  u48_20 01B0                    u72_20 00B0                    u48_21 01AF  
                  u72_21 00AF                    u56_24 0126                    u56_25 0123  
                  u80_27 020A                    u57_20 0136                    u49_20 01B9  
                  u73_20 00BE                    u57_21 0135                    u49_21 01B8  
                  u73_21 00BD                    u81_27 0214                    _SSPIE 0463  
                  u58_20 015B                    u74_20 00C2                    _SSPIF 0063  
                  u58_21 015A                    u74_21 00C1                    u75_20 00DE  
                  u67_20 008C                    u75_21 00DD                    u67_21 008B  
                  u68_20 0091                    u68_21 0090                    u69_20 0095  
                  u69_21 0094                    u77_27 00B6                    u78_27 00D5  
                  u79_27 0141                    _check 0024                    pclath 000A  
                  status 0003                    wtemp0 007E          __initialization 000F  
           __end_of_main 01E4                   ??_main 002A                   _ADRESH 001E  
                 _ANSELH 0189                   i1l1101 0217                   i1l1111 01A7  
                 i1l1103 018A                   i1l1121 01B9                   i1l1105 0190  
                 i1l1107 0195                   i1l1211 0091                   i1l1133 00E8  
                 i1l1117 01AA                   i1l1109 019E                   i1l1221 009A  
                 i1l1213 0095                   i1l1151 0107                   i1l1143 00EB  
                 i1l1119 01B0                   i1l1231 00B0                   i1l1223 00A0  
                 i1l1215 0097                   i1l1207 0086                   i1l1161 0136  
                 i1l1145 00F3                   i1l1137 00EA                   i1l1129 01C3  
                 i1l1241 00CE                   i1l1233 00BE                   i1l1225 00A4  
                 i1l1217 0098                   i1l1209 008C                   i1l1155 0111  
                 i1l1147 00FC                   i1l1171 0156                   i1l1243 00D2  
                 i1l1235 00C2                   i1l1227 00A8                   i1l1219 0099  
                 i1l1157 011A                   i1l1149 0101                   i1l1173 015B  
                 i1l1165 013B                   i1l1245 00D3                   i1l1237 00C6  
                 i1l1229 00A9                   i1l1159 0130                   i1l1095 0200  
                 i1l1175 0188                   i1l1167 0148                   i1l1239 00C9  
                 i1l1097 0206                   i1l1169 014D                   i1l1099 020F  
                 _SSPADD 0093                   _TRISC3 043B                   _TRISC4 043C  
                 _SSPBUF 0013                   _SSPCON 0014             ??_DHT11_Read 0072  
                 _dht_ok 0022             ?_setupINTOSC 0070                   saved_w 007E  
     __end_of_DHT11_Read 013B  __end_of__initialization 001A           __pcstackCOMMON 0070  
  I2C_Slave_Init@address 0029               __pbssBANK0 0020               __pmaintext 01C8  
             __pintentry 0004                  _SSPCON2 0091                  _SSPSTAT 0094  
          ??_DHT11_Start 0070                _ANSELbits 0188        __end_of_leer_temp 018A  
                __ptext1 001E                  __ptext2 021B                  __ptext3 01E4  
                __ptext4 0086                  __ptext5 013B                  __ptext6 0200  
                __ptext7 018A                  __ptext8 00E8                _T1CONbits 0010  
                _timeout 0020     end_of_initialization 001A           _I2C_Slave_Init 01E4  
    __end_of_DHT11_Start 021B        __end_of_portsetup 022E                _PORTAbits 0005  
              _PORTDbits 0008                _TRISAbits 0085                _TRISCbits 0087  
              _TRISDbits 0088   __end_of_I2C_Slave_Init 0200      start_initialization 000F  
            __end_of_isr 00E8              _DHT11_Start 0200          ?_I2C_Slave_Init 0070  
              ___latbits 0002            __pcstackBANK0 0029          setupINTOSC@IRCF 0029  
              _leer_temp 013B           _DHT11_Response 018A        interrupt_function 0004  
               _PIR1bits 000C              DHT11_Read@i 0077               _ADCON0bits 001F  
             _ADCON1bits 009F            ??_setupINTOSC 0029                _portsetup 021B  
 __end_of_DHT11_Response 01C8               ?_leer_temp 0070               _DHT11_Read 00E8  
        DHT11_Read@_data 0075               ?_portsetup 0070          ?_DHT11_Response 0070  
    __end_of_setupINTOSC 0086         ??_I2C_Slave_Init 0029             ?_DHT11_Start 0070  
            ??_leer_temp 0078             _temperaturai 0027                 intlevel1 0000  
            ?_DHT11_Read 0070               _OSCCONbits 008F              ??_portsetup 002A  
            _setupINTOSC 001E              _SSPCON2bits 0091               _SSPCONbits 0014  
