

Microchip MPLAB XC8 Assembler V2.40 build 20220703182018 
                                                                                               Wed Mar 08 12:30:44 2023

Microchip MPLAB XC8 C Compiler v2.40 (Free license) build 20220703182018 Og1 
     1                           	processor	16F887
     2                           	pagewidth 120
     3                           	opt	flic
     4                           	psect	strings,global,class=STRING,delta=2,noexec
     5                           	psect	cinit,global,class=CODE,merge=1,delta=2
     6                           	psect	bssCOMMON,global,class=COMMON,space=1,delta=1,noexec
     7                           	psect	bssBANK0,global,class=BANK0,space=1,delta=1,noexec
     8                           	psect	bssBANK1,global,class=BANK1,space=1,delta=1,noexec
     9                           	psect	cstackBANK1,global,class=BANK1,space=1,delta=1,noexec
    10                           	psect	cstackCOMMON,global,class=COMMON,space=1,delta=1,noexec
    11                           	psect	cstackBANK0,global,class=BANK0,space=1,delta=1,noexec
    12                           	psect	maintext,global,class=CODE,split=1,delta=2
    13                           	psect	text1,local,class=CODE,merge=1,delta=2
    14                           	psect	text2,local,class=CODE,merge=1,delta=2
    15                           	psect	text3,local,class=CODE,merge=1,delta=2
    16                           	psect	text4,local,class=CODE,merge=1,delta=2
    17                           	psect	text5,local,class=CODE,merge=1,delta=2
    18                           	psect	text6,local,class=CODE,merge=1,delta=2
    19                           	psect	text7,local,class=CODE,merge=1,delta=2
    20                           	psect	text8,local,class=CODE,merge=1,delta=2
    21                           	psect	text9,local,class=CODE,merge=1,delta=2,group=1
    22                           	psect	text10,local,class=CODE,merge=1,delta=2,group=1
    23                           	psect	text11,local,class=CODE,merge=1,delta=2,group=1
    24                           	psect	text12,local,class=CODE,merge=1,delta=2,group=1
    25                           	psect	text13,local,class=CODE,merge=1,delta=2,group=1
    26                           	psect	text14,local,class=CODE,merge=1,delta=2,group=1
    27                           	psect	text15,local,class=CODE,merge=1,delta=2
    28                           	psect	text16,local,class=CODE,merge=1,delta=2
    29                           	psect	text17,local,class=CODE,merge=1,delta=2
    30                           	psect	intentry,global,class=CODE,delta=2
    31                           	psect	idloc,global,abs,ovrld,class=IDLOC,space=5,delta=2,noexec
    32                           	psect	config,global,abs,ovrld,class=CONFIG,space=4,delta=2,noexec
    33                           	dabs	1,0x7E,2
    34     0000                     
    35                           ; Version 2.40
    36                           ; Generated 17/11/2021 GMT
    37                           ; 
    38                           ; Copyright © 2021, Microchip Technology Inc. and its subsidiaries ("Microchip")
    39                           ; All rights reserved.
    40                           ; 
    41                           ; This software is developed by Microchip Technology Inc. and its subsidiaries ("Microch
      +                          ip").
    42                           ; 
    43                           ; Redistribution and use in source and binary forms, with or without modification, are
    44                           ; permitted provided that the following conditions are met:
    45                           ; 
    46                           ;     1. Redistributions of source code must retain the above copyright notice, this lis
      +                          t of
    47                           ;        conditions and the following disclaimer.
    48                           ; 
    49                           ;     2. Redistributions in binary form must reproduce the above copyright notice, this 
      +                          list
    50                           ;        of conditions and the following disclaimer in the documentation and/or other
    51                           ;        materials provided with the distribution. Publication is not required when
    52                           ;        this file is used in an embedded application.
    53                           ; 
    54                           ;     3. Microchip's name may not be used to endorse or promote products derived from th
      +                          is
    55                           ;        software without specific prior written permission.
    56                           ; 
    57                           ; THIS SOFTWARE IS PROVIDED BY MICROCHIP "AS IS" AND ANY EXPRESS OR IMPLIED WARRANTIES,
    58                           ; INCLUDING, BUT NOT LIMITED TO, THE IMPLIED WARRANTIES OF MERCHANTABILITY AND FITNESS F
      +                          OR
    59                           ; PURPOSE ARE DISCLAIMED.  IN NO EVENT SHALL MICROCHIP BE LIABLE FOR ANY DIRECT, INDIREC
      +                          T,
    60                           ; INCIDENTAL, SPECIAL, EXEMPLARY, OR CONSEQUENTIAL DAMAGES (INCLUDING BUT NOT LIMITED TO
    61                           ; PROCUREMENT OF SUBSTITUTE GOODS OR SERVICES; LOSS OF USE, DATA OR PROFITS; OR BUSINESS
    62                           ; INTERRUPTION) HOWSOEVER CAUSED AND ON ANY THEORY OF LIABILITY, WHETHER IN CONTRACT, ST
      +                          RICT
    63                           ; LIABILITY, OR TORT (INCLUDING NEGLIGENCE OR OTHERWISE) ARISING IN ANY WAY OUT OF THE U
      +                          SE OF
    64                           ; THIS SOFTWARE, EVEN IF ADVISED OF THE POSSIBILITY OF SUCH DAMAGE.
    65                           ; 
    66                           ; 
    67                           ; Code-generator required, PIC16F887 Definitions
    68                           ; 
    69                           ; SFR Addresses
    70     0000                     	;# 
    71     0001                     	;# 
    72     0002                     	;# 
    73     0003                     	;# 
    74     0004                     	;# 
    75     0005                     	;# 
    76     0006                     	;# 
    77     0007                     	;# 
    78     0008                     	;# 
    79     0009                     	;# 
    80     000A                     	;# 
    81     000B                     	;# 
    82     000C                     	;# 
    83     000D                     	;# 
    84     000E                     	;# 
    85     000E                     	;# 
    86     000F                     	;# 
    87     0010                     	;# 
    88     0011                     	;# 
    89     0012                     	;# 
    90     0013                     	;# 
    91     0014                     	;# 
    92     0015                     	;# 
    93     0015                     	;# 
    94     0016                     	;# 
    95     0017                     	;# 
    96     0018                     	;# 
    97     0019                     	;# 
    98     001A                     	;# 
    99     001B                     	;# 
   100     001B                     	;# 
   101     001C                     	;# 
   102     001D                     	;# 
   103     001E                     	;# 
   104     001F                     	;# 
   105     0081                     	;# 
   106     0085                     	;# 
   107     0086                     	;# 
   108     0087                     	;# 
   109     0088                     	;# 
   110     0089                     	;# 
   111     008C                     	;# 
   112     008D                     	;# 
   113     008E                     	;# 
   114     008F                     	;# 
   115     0090                     	;# 
   116     0091                     	;# 
   117     0092                     	;# 
   118     0093                     	;# 
   119     0093                     	;# 
   120     0093                     	;# 
   121     0094                     	;# 
   122     0095                     	;# 
   123     0096                     	;# 
   124     0097                     	;# 
   125     0098                     	;# 
   126     0099                     	;# 
   127     009A                     	;# 
   128     009B                     	;# 
   129     009C                     	;# 
   130     009D                     	;# 
   131     009E                     	;# 
   132     009F                     	;# 
   133     0105                     	;# 
   134     0107                     	;# 
   135     0108                     	;# 
   136     0109                     	;# 
   137     010C                     	;# 
   138     010C                     	;# 
   139     010D                     	;# 
   140     010E                     	;# 
   141     010F                     	;# 
   142     0185                     	;# 
   143     0187                     	;# 
   144     0188                     	;# 
   145     0189                     	;# 
   146     018C                     	;# 
   147     018D                     	;# 
   148     0000                     	;# 
   149     0001                     	;# 
   150     0002                     	;# 
   151     0003                     	;# 
   152     0004                     	;# 
   153     0005                     	;# 
   154     0006                     	;# 
   155     0007                     	;# 
   156     0008                     	;# 
   157     0009                     	;# 
   158     000A                     	;# 
   159     000B                     	;# 
   160     000C                     	;# 
   161     000D                     	;# 
   162     000E                     	;# 
   163     000E                     	;# 
   164     000F                     	;# 
   165     0010                     	;# 
   166     0011                     	;# 
   167     0012                     	;# 
   168     0013                     	;# 
   169     0014                     	;# 
   170     0015                     	;# 
   171     0015                     	;# 
   172     0016                     	;# 
   173     0017                     	;# 
   174     0018                     	;# 
   175     0019                     	;# 
   176     001A                     	;# 
   177     001B                     	;# 
   178     001B                     	;# 
   179     001C                     	;# 
   180     001D                     	;# 
   181     001E                     	;# 
   182     001F                     	;# 
   183     0081                     	;# 
   184     0085                     	;# 
   185     0086                     	;# 
   186     0087                     	;# 
   187     0088                     	;# 
   188     0089                     	;# 
   189     008C                     	;# 
   190     008D                     	;# 
   191     008E                     	;# 
   192     008F                     	;# 
   193     0090                     	;# 
   194     0091                     	;# 
   195     0092                     	;# 
   196     0093                     	;# 
   197     0093                     	;# 
   198     0093                     	;# 
   199     0094                     	;# 
   200     0095                     	;# 
   201     0096                     	;# 
   202     0097                     	;# 
   203     0098                     	;# 
   204     0099                     	;# 
   205     009A                     	;# 
   206     009B                     	;# 
   207     009C                     	;# 
   208     009D                     	;# 
   209     009E                     	;# 
   210     009F                     	;# 
   211     0105                     	;# 
   212     0107                     	;# 
   213     0108                     	;# 
   214     0109                     	;# 
   215     010C                     	;# 
   216     010C                     	;# 
   217     010D                     	;# 
   218     010E                     	;# 
   219     010F                     	;# 
   220     0185                     	;# 
   221     0187                     	;# 
   222     0188                     	;# 
   223     0189                     	;# 
   224     018C                     	;# 
   225     018D                     	;# 
   226     0000                     	;# 
   227     0001                     	;# 
   228     0002                     	;# 
   229     0003                     	;# 
   230     0004                     	;# 
   231     0005                     	;# 
   232     0006                     	;# 
   233     0007                     	;# 
   234     0008                     	;# 
   235     0009                     	;# 
   236     000A                     	;# 
   237     000B                     	;# 
   238     000C                     	;# 
   239     000D                     	;# 
   240     000E                     	;# 
   241     000E                     	;# 
   242     000F                     	;# 
   243     0010                     	;# 
   244     0011                     	;# 
   245     0012                     	;# 
   246     0013                     	;# 
   247     0014                     	;# 
   248     0015                     	;# 
   249     0015                     	;# 
   250     0016                     	;# 
   251     0017                     	;# 
   252     0018                     	;# 
   253     0019                     	;# 
   254     001A                     	;# 
   255     001B                     	;# 
   256     001B                     	;# 
   257     001C                     	;# 
   258     001D                     	;# 
   259     001E                     	;# 
   260     001F                     	;# 
   261     0081                     	;# 
   262     0085                     	;# 
   263     0086                     	;# 
   264     0087                     	;# 
   265     0088                     	;# 
   266     0089                     	;# 
   267     008C                     	;# 
   268     008D                     	;# 
   269     008E                     	;# 
   270     008F                     	;# 
   271     0090                     	;# 
   272     0091                     	;# 
   273     0092                     	;# 
   274     0093                     	;# 
   275     0093                     	;# 
   276     0093                     	;# 
   277     0094                     	;# 
   278     0095                     	;# 
   279     0096                     	;# 
   280     0097                     	;# 
   281     0098                     	;# 
   282     0099                     	;# 
   283     009A                     	;# 
   284     009B                     	;# 
   285     009C                     	;# 
   286     009D                     	;# 
   287     009E                     	;# 
   288     009F                     	;# 
   289     0105                     	;# 
   290     0107                     	;# 
   291     0108                     	;# 
   292     0109                     	;# 
   293     010C                     	;# 
   294     010C                     	;# 
   295     010D                     	;# 
   296     010E                     	;# 
   297     010F                     	;# 
   298     0185                     	;# 
   299     0187                     	;# 
   300     0188                     	;# 
   301     0189                     	;# 
   302     018C                     	;# 
   303     018D                     	;# 
   304     0000                     	;# 
   305     0001                     	;# 
   306     0002                     	;# 
   307     0003                     	;# 
   308     0004                     	;# 
   309     0005                     	;# 
   310     0006                     	;# 
   311     0007                     	;# 
   312     0008                     	;# 
   313     0009                     	;# 
   314     000A                     	;# 
   315     000B                     	;# 
   316     000C                     	;# 
   317     000D                     	;# 
   318     000E                     	;# 
   319     000E                     	;# 
   320     000F                     	;# 
   321     0010                     	;# 
   322     0011                     	;# 
   323     0012                     	;# 
   324     0013                     	;# 
   325     0014                     	;# 
   326     0015                     	;# 
   327     0015                     	;# 
   328     0016                     	;# 
   329     0017                     	;# 
   330     0018                     	;# 
   331     0019                     	;# 
   332     001A                     	;# 
   333     001B                     	;# 
   334     001B                     	;# 
   335     001C                     	;# 
   336     001D                     	;# 
   337     001E                     	;# 
   338     001F                     	;# 
   339     0081                     	;# 
   340     0085                     	;# 
   341     0086                     	;# 
   342     0087                     	;# 
   343     0088                     	;# 
   344     0089                     	;# 
   345     008C                     	;# 
   346     008D                     	;# 
   347     008E                     	;# 
   348     008F                     	;# 
   349     0090                     	;# 
   350     0091                     	;# 
   351     0092                     	;# 
   352     0093                     	;# 
   353     0093                     	;# 
   354     0093                     	;# 
   355     0094                     	;# 
   356     0095                     	;# 
   357     0096                     	;# 
   358     0097                     	;# 
   359     0098                     	;# 
   360     0099                     	;# 
   361     009A                     	;# 
   362     009B                     	;# 
   363     009C                     	;# 
   364     009D                     	;# 
   365     009E                     	;# 
   366     009F                     	;# 
   367     0105                     	;# 
   368     0107                     	;# 
   369     0108                     	;# 
   370     0109                     	;# 
   371     010C                     	;# 
   372     010C                     	;# 
   373     010D                     	;# 
   374     010E                     	;# 
   375     010F                     	;# 
   376     0185                     	;# 
   377     0187                     	;# 
   378     0188                     	;# 
   379     0189                     	;# 
   380     018C                     	;# 
   381     018D                     	;# 
   382     0000                     	;# 
   383     0001                     	;# 
   384     0002                     	;# 
   385     0003                     	;# 
   386     0004                     	;# 
   387     0005                     	;# 
   388     0006                     	;# 
   389     0007                     	;# 
   390     0008                     	;# 
   391     0009                     	;# 
   392     000A                     	;# 
   393     000B                     	;# 
   394     000C                     	;# 
   395     000D                     	;# 
   396     000E                     	;# 
   397     000E                     	;# 
   398     000F                     	;# 
   399     0010                     	;# 
   400     0011                     	;# 
   401     0012                     	;# 
   402     0013                     	;# 
   403     0014                     	;# 
   404     0015                     	;# 
   405     0015                     	;# 
   406     0016                     	;# 
   407     0017                     	;# 
   408     0018                     	;# 
   409     0019                     	;# 
   410     001A                     	;# 
   411     001B                     	;# 
   412     001B                     	;# 
   413     001C                     	;# 
   414     001D                     	;# 
   415     001E                     	;# 
   416     001F                     	;# 
   417     0081                     	;# 
   418     0085                     	;# 
   419     0086                     	;# 
   420     0087                     	;# 
   421     0088                     	;# 
   422     0089                     	;# 
   423     008C                     	;# 
   424     008D                     	;# 
   425     008E                     	;# 
   426     008F                     	;# 
   427     0090                     	;# 
   428     0091                     	;# 
   429     0092                     	;# 
   430     0093                     	;# 
   431     0093                     	;# 
   432     0093                     	;# 
   433     0094                     	;# 
   434     0095                     	;# 
   435     0096                     	;# 
   436     0097                     	;# 
   437     0098                     	;# 
   438     0099                     	;# 
   439     009A                     	;# 
   440     009B                     	;# 
   441     009C                     	;# 
   442     009D                     	;# 
   443     009E                     	;# 
   444     009F                     	;# 
   445     0105                     	;# 
   446     0107                     	;# 
   447     0108                     	;# 
   448     0109                     	;# 
   449     010C                     	;# 
   450     010C                     	;# 
   451     010D                     	;# 
   452     010E                     	;# 
   453     010F                     	;# 
   454     0185                     	;# 
   455     0187                     	;# 
   456     0188                     	;# 
   457     0189                     	;# 
   458     018C                     	;# 
   459     018D                     	;# 
   460     0000                     	;# 
   461     0001                     	;# 
   462     0002                     	;# 
   463     0003                     	;# 
   464     0004                     	;# 
   465     0005                     	;# 
   466     0006                     	;# 
   467     0007                     	;# 
   468     0008                     	;# 
   469     0009                     	;# 
   470     000A                     	;# 
   471     000B                     	;# 
   472     000C                     	;# 
   473     000D                     	;# 
   474     000E                     	;# 
   475     000E                     	;# 
   476     000F                     	;# 
   477     0010                     	;# 
   478     0011                     	;# 
   479     0012                     	;# 
   480     0013                     	;# 
   481     0014                     	;# 
   482     0015                     	;# 
   483     0015                     	;# 
   484     0016                     	;# 
   485     0017                     	;# 
   486     0018                     	;# 
   487     0019                     	;# 
   488     001A                     	;# 
   489     001B                     	;# 
   490     001B                     	;# 
   491     001C                     	;# 
   492     001D                     	;# 
   493     001E                     	;# 
   494     001F                     	;# 
   495     0081                     	;# 
   496     0085                     	;# 
   497     0086                     	;# 
   498     0087                     	;# 
   499     0088                     	;# 
   500     0089                     	;# 
   501     008C                     	;# 
   502     008D                     	;# 
   503     008E                     	;# 
   504     008F                     	;# 
   505     0090                     	;# 
   506     0091                     	;# 
   507     0092                     	;# 
   508     0093                     	;# 
   509     0093                     	;# 
   510     0093                     	;# 
   511     0094                     	;# 
   512     0095                     	;# 
   513     0096                     	;# 
   514     0097                     	;# 
   515     0098                     	;# 
   516     0099                     	;# 
   517     009A                     	;# 
   518     009B                     	;# 
   519     009C                     	;# 
   520     009D                     	;# 
   521     009E                     	;# 
   522     009F                     	;# 
   523     0105                     	;# 
   524     0107                     	;# 
   525     0108                     	;# 
   526     0109                     	;# 
   527     010C                     	;# 
   528     010C                     	;# 
   529     010D                     	;# 
   530     010E                     	;# 
   531     010F                     	;# 
   532     0185                     	;# 
   533     0187                     	;# 
   534     0188                     	;# 
   535     0189                     	;# 
   536     018C                     	;# 
   537     018D                     	;# 
   538                           
   539                           	psect	strings
   540     07F3                     __pstrings:
   541     07F3                     stringtab:
   542     07F3                     __stringtab:
   543     07F3                     stringcode:	
   544                           ;	String table - string pointers are 1 byte each
   545                           
   546     07F3                     stringdir:
   547     07F3  3007               	movlw	high stringdir
   548     07F4  008A               	movwf	10
   549     07F5  0804               	movf	4,w
   550     07F6  0A84               	incf	4,f
   551     07F7  0782               	addwf	2,f
   552     07F8                     __stringbase:
   553     07F8  3400               	retlw	0
   554     07F9                     __end_of__stringtab:
   555     07F9                     _pwmFreq:
   556     07F9  3488               	retlw	136
   557     07FA  3413               	retlw	19
   558     07FB  3400               	retlw	0
   559     07FC  3400               	retlw	0
   560     07FD                     __end_of_pwmFreq:
   561     0015                     _CCPR1L	set	21
   562     0012                     _T2CONbits	set	18
   563     0017                     _CCP1CON	set	23
   564     001E                     _ADRESH	set	30
   565     001F                     _ADCON0bits	set	31
   566     0005                     _PORTAbits	set	5
   567     0014                     _SSPCON	set	20
   568     0013                     _SSPBUF	set	19
   569     0014                     _SSPCONbits	set	20
   570     000C                     _PIR1bits	set	12
   571     0008                     _PORTDbits	set	8
   572     0001                     _TMR0	set	1
   573     000B                     _INTCONbits	set	11
   574     0092                     _TMR2ON	set	146
   575     0061                     _TMR2IF	set	97
   576     0066                     _ADIF	set	102
   577     0063                     _SSPIF	set	99
   578     005E                     _PEIE	set	94
   579     005F                     _GIE	set	95
   580     0092                     _PR2	set	146
   581     009F                     _ADCON1bits	set	159
   582     0085                     _TRISAbits	set	133
   583     008F                     _OSCCONbits	set	143
   584     0091                     _SSPCON2bits	set	145
   585     0087                     _TRISCbits	set	135
   586     0094                     _SSPSTAT	set	148
   587     0093                     _SSPADD	set	147
   588     0091                     _SSPCON2	set	145
   589     0081                     _OPTION_REGbits	set	129
   590     0088                     _TRISDbits	set	136
   591     0094                     _SSPSTATbits	set	148
   592     0463                     _SSPIE	set	1123
   593     043C                     _TRISC4	set	1084
   594     043B                     _TRISC3	set	1083
   595     0188                     _ANSELbits	set	392
   596     0189                     _ANSELH	set	393
   597     0188                     _ANSEL	set	392
   598                           
   599                           	psect	cinit
   600     000F                     start_initialization:	
   601                           ; #config settings
   602                           
   603     000F                     __initialization:
   604                           
   605                           ; Clear objects allocated to COMMON
   606     000F  01F9               	clrf	__pbssCOMMON& (0+127)
   607                           
   608                           ; Clear objects allocated to BANK0
   609     0010  1283               	bcf	3,5	;RP0=0, select bank0
   610     0011  1303               	bcf	3,6	;RP1=0, select bank0
   611     0012  01EE               	clrf	__pbssBANK0& (0+127)
   612                           
   613                           ; Clear objects allocated to BANK1
   614     0013  1683               	bsf	3,5	;RP0=1, select bank1
   615     0014  1303               	bcf	3,6	;RP1=0, select bank1
   616     0015  01B9               	clrf	__pbssBANK1& (0+127)
   617     0016  01BA               	clrf	(__pbssBANK1+1)& (0+127)
   618     0017  01BB               	clrf	(__pbssBANK1+2)& (0+127)
   619     0018  01BC               	clrf	(__pbssBANK1+3)& (0+127)
   620     0019  01BD               	clrf	(__pbssBANK1+4)& (0+127)
   621     001A  01BE               	clrf	(__pbssBANK1+5)& (0+127)
   622     001B                     end_of_initialization:	
   623                           ;End of C runtime variable initialization code
   624                           
   625     001B                     __end_of__initialization:
   626     001B  0183               	clrf	3
   627     001C  120A  118A  2EFB   	ljmp	_main	;jump to C main() function
   628                           
   629                           	psect	bssCOMMON
   630     0079                     __pbssCOMMON:
   631     0079                     _z:
   632     0079                     	ds	1
   633                           
   634                           	psect	bssBANK0
   635     006E                     __pbssBANK0:
   636     006E                     _dato:
   637     006E                     	ds	1
   638                           
   639                           	psect	bssBANK1
   640     00B9                     __pbssBANK1:
   641     00B9                     _dutyCycleApply:
   642     00B9                     	ds	2
   643     00BB                     _dutycycle:
   644     00BB                     	ds	2
   645     00BD                     _SERVO:
   646     00BD                     	ds	1
   647     00BE                     _ADC:
   648     00BE                     	ds	1
   649                           
   650                           	psect	cstackBANK1
   651     00A0                     __pcstackBANK1:
   652     00A0                     ___flmul@sign:
   653                           
   654                           ; 1 bytes @ 0x0
   655     00A0                     	ds	1
   656     00A1                     ___flmul@grs:
   657                           
   658                           ; 4 bytes @ 0x1
   659     00A1                     	ds	4
   660     00A5                     ___flmul@aexp:
   661                           
   662                           ; 1 bytes @ 0x5
   663     00A5                     	ds	1
   664     00A6                     ___flmul@bexp:
   665                           
   666                           ; 1 bytes @ 0x6
   667     00A6                     	ds	1
   668     00A7                     ___flmul@prod:
   669                           
   670                           ; 4 bytes @ 0x7
   671     00A7                     	ds	4
   672     00AB                     ___flmul@temp:
   673                           
   674                           ; 2 bytes @ 0xB
   675     00AB                     	ds	2
   676     00AD                     ___fltol@sign1:
   677                           
   678                           ; 1 bytes @ 0xD
   679     00AD                     	ds	1
   680     00AE                     ___fltol@exp1:
   681                           
   682                           ; 1 bytes @ 0xE
   683     00AE                     	ds	1
   684     00AF                     ?_applyPWMDutyCycle:
   685     00AF                     applyPWMDutyCycle@dutyCycle:	
   686                           ; 1 bytes @ 0xF
   687                           
   688                           
   689                           ; 2 bytes @ 0xF
   690     00AF                     	ds	2
   691     00B1                     applyPWMDutyCycle@freq:
   692                           
   693                           ; 4 bytes @ 0x11
   694     00B1                     	ds	4
   695     00B5                     ??_applyPWMDutyCycle:
   696                           
   697                           ; 1 bytes @ 0x15
   698     00B5                     	ds	2
   699     00B7                     ??_main:
   700                           
   701                           ; 1 bytes @ 0x17
   702     00B7                     	ds	2
   703                           
   704                           	psect	cstackCOMMON
   705     0070                     __pcstackCOMMON:
   706     0070                     ?_setupINTOSC:
   707     0070                     ?_portsetup:	
   708                           ; 1 bytes @ 0x0
   709                           
   710     0070                     ?_setupTMR0:	
   711                           ; 1 bytes @ 0x0
   712                           
   713     0070                     ?_setupPWM:	
   714                           ; 1 bytes @ 0x0
   715                           
   716     0070                     ?_I2C_Slave_Init:	
   717                           ; 1 bytes @ 0x0
   718                           
   719     0070                     ?_isr:	
   720                           ; 1 bytes @ 0x0
   721                           
   722     0070                     ??_isr:	
   723                           ; 1 bytes @ 0x0
   724                           
   725     0070                     ?_main:	
   726                           ; 1 bytes @ 0x0
   727                           
   728                           
   729                           ; 1 bytes @ 0x0
   730     0070                     	ds	4
   731     0074                     ??_setupINTOSC:
   732     0074                     ??_setupTMR0:	
   733                           ; 1 bytes @ 0x4
   734                           
   735     0074                     ??_setupPWM:	
   736                           ; 1 bytes @ 0x4
   737                           
   738     0074                     ?_ADC_config:	
   739                           ; 1 bytes @ 0x4
   740                           
   741     0074                     ??_I2C_Slave_Init:	
   742                           ; 1 bytes @ 0x4
   743                           
   744     0074                     ??___lldiv:	
   745                           ; 1 bytes @ 0x4
   746                           
   747     0074                     ?_ADC_read:	
   748                           ; 1 bytes @ 0x4
   749                           
   750     0074                     ?__Umul8_16:	
   751                           ; 2 bytes @ 0x4
   752                           
   753     0074                     I2C_Slave_Init@address:	
   754                           ; 2 bytes @ 0x4
   755                           
   756     0074                     setupINTOSC@IRCF:	
   757                           ; 1 bytes @ 0x4
   758                           
   759     0074                     __Umul8_16@multiplicand:	
   760                           ; 1 bytes @ 0x4
   761                           
   762     0074                     ADC_config@channel:	
   763                           ; 1 bytes @ 0x4
   764                           
   765     0074                     ADC_read@channel:	
   766                           ; 2 bytes @ 0x4
   767                           
   768                           
   769                           ; 2 bytes @ 0x4
   770     0074                     	ds	1
   771     0075                     ??_portsetup:
   772     0075                     ??_initPwm:	
   773                           ; 1 bytes @ 0x5
   774                           
   775     0075                     ??_pwmMaxDuty:	
   776                           ; 1 bytes @ 0x5
   777                           
   778                           
   779                           ; 1 bytes @ 0x5
   780     0075                     	ds	1
   781     0076                     ??_ADC_config:
   782     0076                     ??_ADC_read:	
   783                           ; 1 bytes @ 0x6
   784                           
   785     0076                     ??__Umul8_16:	
   786                           ; 1 bytes @ 0x6
   787                           
   788                           
   789                           ; 1 bytes @ 0x6
   790     0076                     	ds	3
   791                           
   792                           	psect	cstackBANK0
   793     0020                     __pcstackBANK0:
   794     0020                     ?___lldiv:
   795     0020                     __Umul8_16@product:	
   796                           ; 4 bytes @ 0x0
   797                           
   798     0020                     ___lldiv@divisor:	
   799                           ; 2 bytes @ 0x0
   800                           
   801                           
   802                           ; 4 bytes @ 0x0
   803     0020                     	ds	2
   804     0022                     __Umul8_16@word_mpld:
   805                           
   806                           ; 2 bytes @ 0x2
   807     0022                     	ds	2
   808     0024                     __Umul8_16@multiplier:
   809     0024                     ___lldiv@dividend:	
   810                           ; 1 bytes @ 0x4
   811                           
   812                           
   813                           ; 4 bytes @ 0x4
   814     0024                     	ds	4
   815     0028                     ___lldiv@quotient:
   816                           
   817                           ; 4 bytes @ 0x8
   818     0028                     	ds	4
   819     002C                     ___lldiv@counter:
   820                           
   821                           ; 1 bytes @ 0xC
   822     002C                     	ds	1
   823     002D                     ?_initPwm:
   824     002D                     ?_pwmMaxDuty:	
   825                           ; 1 bytes @ 0xD
   826                           
   827     002D                     pwmMaxDuty@freq:	
   828                           ; 4 bytes @ 0xD
   829                           
   830     002D                     initPwm@freq:	
   831                           ; 4 bytes @ 0xD
   832                           
   833                           
   834                           ; 4 bytes @ 0xD
   835     002D                     	ds	4
   836     0031                     ?___xxtofl:
   837     0031                     ___xxtofl@val:	
   838                           ; 4 bytes @ 0x11
   839                           
   840                           
   841                           ; 4 bytes @ 0x11
   842     0031                     	ds	4
   843     0035                     ??___xxtofl:
   844                           
   845                           ; 1 bytes @ 0x15
   846     0035                     	ds	4
   847     0039                     ___xxtofl@sign:
   848                           
   849                           ; 1 bytes @ 0x19
   850     0039                     	ds	1
   851     003A                     ___xxtofl@exp:
   852                           
   853                           ; 1 bytes @ 0x1A
   854     003A                     	ds	1
   855     003B                     ___xxtofl@arg:
   856                           
   857                           ; 4 bytes @ 0x1B
   858     003B                     	ds	4
   859     003F                     ?___fldiv:
   860     003F                     ___fldiv@a:	
   861                           ; 4 bytes @ 0x1F
   862                           
   863                           
   864                           ; 4 bytes @ 0x1F
   865     003F                     	ds	4
   866     0043                     ___fldiv@b:
   867                           
   868                           ; 4 bytes @ 0x23
   869     0043                     	ds	4
   870     0047                     ??___fldiv:
   871                           
   872                           ; 1 bytes @ 0x27
   873     0047                     	ds	5
   874     004C                     ___fldiv@rem:
   875                           
   876                           ; 4 bytes @ 0x2C
   877     004C                     	ds	4
   878     0050                     ___fldiv@sign:
   879                           
   880                           ; 1 bytes @ 0x30
   881     0050                     	ds	1
   882     0051                     ___fldiv@new_exp:
   883                           
   884                           ; 2 bytes @ 0x31
   885     0051                     	ds	2
   886     0053                     ___fldiv@grs:
   887                           
   888                           ; 4 bytes @ 0x33
   889     0053                     	ds	4
   890     0057                     ___fldiv@bexp:
   891                           
   892                           ; 1 bytes @ 0x37
   893     0057                     	ds	1
   894     0058                     ___fldiv@aexp:
   895                           
   896                           ; 1 bytes @ 0x38
   897     0058                     	ds	1
   898     0059                     ?___flmul:
   899     0059                     ___flmul@b:	
   900                           ; 4 bytes @ 0x39
   901                           
   902                           
   903                           ; 4 bytes @ 0x39
   904     0059                     	ds	4
   905     005D                     ___flmul@a:
   906                           
   907                           ; 4 bytes @ 0x3D
   908     005D                     	ds	4
   909     0061                     ??___flmul:
   910                           
   911                           ; 1 bytes @ 0x41
   912     0061                     	ds	5
   913     0066                     ?___fltol:
   914     0066                     ___fltol@f1:	
   915                           ; 4 bytes @ 0x46
   916                           
   917                           
   918                           ; 4 bytes @ 0x46
   919     0066                     	ds	4
   920     006A                     ??___fltol:
   921                           
   922                           ; 1 bytes @ 0x4A
   923     006A                     	ds	4
   924                           
   925                           	psect	maintext
   926     06FB                     __pmaintext:	
   927 ;;
   928 ;;Main: autosize = 0, tempsize = 2, incstack = 0, save=0
   929 ;;
   930 ;; *************** function _main *****************
   931 ;; Defined at:
   932 ;;		line 125 in file "main.c"
   933 ;; Parameters:    Size  Location     Type
   934 ;;		None
   935 ;; Auto vars:     Size  Location     Type
   936 ;;		None
   937 ;; Return value:  Size  Location     Type
   938 ;;                  1    wreg      void 
   939 ;; Registers used:
   940 ;;		wreg, status,2, status,0, btemp+1, pclath, cstack
   941 ;; Tracked objects:
   942 ;;		On entry : B00/0
   943 ;;		On exit  : 0/0
   944 ;;		Unchanged: 0/0
   945 ;; Data sizes:     COMMON   BANK0   BANK1   BANK3   BANK2
   946 ;;      Params:         0       0       0       0       0
   947 ;;      Locals:         0       0       0       0       0
   948 ;;      Temps:          0       0       2       0       0
   949 ;;      Totals:         0       0       2       0       0
   950 ;;Total ram usage:        2 bytes
   951 ;; Hardware stack levels required when called: 4
   952 ;; This function calls:
   953 ;;		_ADC_config
   954 ;;		_ADC_read
   955 ;;		_applyPWMDutyCycle
   956 ;;		_initPwm
   957 ;;		_portsetup
   958 ;;		_setupINTOSC
   959 ;;		_setupPWM
   960 ;;		_setupTMR0
   961 ;; This function is called by:
   962 ;;		Startup code after reset
   963 ;; This function uses a non-reentrant model
   964 ;;
   965                           
   966     06FB                     _main:	
   967                           ;psect for function _main
   968                           
   969     06FB                     l2180:	
   970                           ;incstack = 0
   971                           ; Regs used in _main: [wreg+status,2+status,0+btemp+1+pclath+cstack]
   972                           
   973                           
   974                           ;main.c: 126:     setupINTOSC(7);
   975     06FB  3007               	movlw	7
   976     06FC  120A  158A  24A4  120A  118A  	fcall	_setupINTOSC
   977                           
   978                           ;main.c: 127:     portsetup();
   979     0701  120A  158A  237C  120A  118A  	fcall	_portsetup
   980                           
   981                           ;main.c: 128:     setupTMR0();
   982     0706  120A  158A  236D  120A  118A  	fcall	_setupTMR0
   983                           
   984                           ;main.c: 129:     setupPWM();
   985     070B  120A  158A  238D  120A  118A  	fcall	_setupPWM
   986                           
   987                           ;main.c: 130:     initPwm(pwmFreq);
   988     0710  3000               	movlw	0
   989     0711  1283               	bcf	3,5	;RP0=0, select bank0
   990     0712  1303               	bcf	3,6	;RP1=0, select bank0
   991     0713  00B0               	movwf	initPwm@freq+3
   992     0714  3000               	movlw	0
   993     0715  00AF               	movwf	initPwm@freq+2
   994     0716  3013               	movlw	19
   995     0717  00AE               	movwf	initPwm@freq+1
   996     0718  3088               	movlw	136
   997     0719  00AD               	movwf	initPwm@freq
   998     071A  120A  118A  27BA  120A  118A  	fcall	_initPwm
   999     071F                     l2182:
  1000                           
  1001                           ;main.c: 131:     applyPWMDutyCycle(dutycycle,pwmFreq);
  1002     071F  1683               	bsf	3,5	;RP0=1, select bank1
  1003     0720  1303               	bcf	3,6	;RP1=0, select bank1
  1004     0721  083C               	movf	(_dutycycle+1)^(0+128),w
  1005     0722  00B0               	movwf	(applyPWMDutyCycle@dutyCycle+1)^(0+128)
  1006     0723  083B               	movf	_dutycycle^(0+128),w
  1007     0724  00AF               	movwf	applyPWMDutyCycle@dutyCycle^(0+128)
  1008     0725  3000               	movlw	0
  1009     0726  00B4               	movwf	(applyPWMDutyCycle@freq+3)^(0+128)
  1010     0727  3000               	movlw	0
  1011     0728  00B3               	movwf	(applyPWMDutyCycle@freq+2)^(0+128)
  1012     0729  3013               	movlw	19
  1013     072A  00B2               	movwf	(applyPWMDutyCycle@freq+1)^(0+128)
  1014     072B  3088               	movlw	136
  1015     072C  00B1               	movwf	applyPWMDutyCycle@freq^(0+128)
  1016     072D  120A  158A  2742  120A  118A  	fcall	_applyPWMDutyCycle
  1017     0732                     l2184:
  1018                           
  1019                           ;main.c: 132:     ADC_config(0x01);
  1020     0732  3001               	movlw	1
  1021     0733  00F4               	movwf	ADC_config@channel
  1022     0734  3000               	movlw	0
  1023     0735  00F5               	movwf	ADC_config@channel+1
  1024     0736  120A  158A  2418  120A  118A  	fcall	_ADC_config
  1025     073B                     l2186:
  1026                           
  1027                           ;main.c: 138:         if (dato == 0){
  1028     073B  1283               	bcf	3,5	;RP0=0, select bank0
  1029     073C  1303               	bcf	3,6	;RP1=0, select bank0
  1030     073D  086E               	movf	_dato,w
  1031     073E  1D03               	btfss	3,2
  1032     073F  2F41               	goto	u3101
  1033     0740  2F42               	goto	u3100
  1034     0741                     u3101:
  1035     0741  2F46               	goto	l2190
  1036     0742                     u3100:
  1037     0742                     l2188:
  1038                           
  1039                           ;main.c: 139:             SERVO = 0;
  1040     0742  1683               	bsf	3,5	;RP0=1, select bank1
  1041     0743  1303               	bcf	3,6	;RP1=0, select bank1
  1042     0744  01BD               	clrf	_SERVO^(0+128)
  1043                           
  1044                           ;main.c: 140:         }
  1045     0745  2F3B               	goto	l2186
  1046     0746                     l2190:
  1047     0746  036E               	decf	_dato,w
  1048     0747  1D03               	btfss	3,2
  1049     0748  2F4A               	goto	u3111
  1050     0749  2F4B               	goto	u3110
  1051     074A                     u3111:
  1052     074A  2F50               	goto	l2194
  1053     074B                     u3110:
  1054     074B                     l2192:
  1055                           
  1056                           ;main.c: 142:             SERVO = 1;
  1057     074B  1683               	bsf	3,5	;RP0=1, select bank1
  1058     074C  1303               	bcf	3,6	;RP1=0, select bank1
  1059     074D  01BD               	clrf	_SERVO^(0+128)
  1060     074E  0ABD               	incf	_SERVO^(0+128),f
  1061                           
  1062                           ;main.c: 143:         }
  1063     074F  2F3B               	goto	l2186
  1064     0750                     l2194:
  1065     0750  3002               	movlw	2
  1066     0751  066E               	xorwf	_dato,w
  1067     0752  1D03               	btfss	3,2
  1068     0753  2F55               	goto	u3121
  1069     0754  2F56               	goto	u3120
  1070     0755                     u3121:
  1071     0755  2F91               	goto	l2206
  1072     0756                     u3120:
  1073     0756                     l2196:
  1074                           
  1075                           ;main.c: 145:             ADC = ADC_read(0);
  1076     0756  3000               	movlw	0
  1077     0757  00F4               	movwf	ADC_read@channel
  1078     0758  00F5               	movwf	ADC_read@channel+1
  1079     0759  120A  158A  2451  120A  118A  	fcall	_ADC_read
  1080     075E  0874               	movf	?_ADC_read,w
  1081     075F  1683               	bsf	3,5	;RP0=1, select bank1
  1082     0760  1303               	bcf	3,6	;RP1=0, select bank1
  1083     0761  00BE               	movwf	_ADC^(0+128)
  1084     0762                     l2198:
  1085                           
  1086                           ;main.c: 146:             dutycycle = 4*ADC;
  1087     0762  083E               	movf	_ADC^(0+128),w
  1088     0763  00B7               	movwf	??_main^(0+128)
  1089     0764  01B8               	clrf	(??_main^(0+128)+1)
  1090     0765  1003               	clrc
  1091     0766  0DB7               	rlf	??_main^(0+128),f
  1092     0767  0DB8               	rlf	(??_main^(0+128)+1),f
  1093     0768  1003               	clrc
  1094     0769  0DB7               	rlf	??_main^(0+128),f
  1095     076A  0DB8               	rlf	(??_main^(0+128)+1),f
  1096     076B  0837               	movf	??_main^(0+128),w
  1097     076C  00BB               	movwf	_dutycycle^(0+128)
  1098     076D  0838               	movf	(??_main+1)^(0+128),w
  1099     076E  00BC               	movwf	(_dutycycle+1)^(0+128)
  1100     076F                     l2200:
  1101                           
  1102                           ;main.c: 147:             if (dutycycle != dutyCycleApply){
  1103     076F  083A               	movf	(_dutyCycleApply+1)^(0+128),w
  1104     0770  063C               	xorwf	(_dutycycle+1)^(0+128),w
  1105     0771  1D03               	skipz
  1106     0772  2F75               	goto	u3135
  1107     0773  0839               	movf	_dutyCycleApply^(0+128),w
  1108     0774  063B               	xorwf	_dutycycle^(0+128),w
  1109     0775                     u3135:
  1110     0775  1903               	skipnz
  1111     0776  2F78               	goto	u3131
  1112     0777  2F79               	goto	u3130
  1113     0778                     u3131:
  1114     0778  2F3B               	goto	l2186
  1115     0779                     u3130:
  1116     0779                     l2202:
  1117                           
  1118                           ;main.c: 148:                 applyPWMDutyCycle(dutycycle,pwmFreq);
  1119     0779  083C               	movf	(_dutycycle+1)^(0+128),w
  1120     077A  00B0               	movwf	(applyPWMDutyCycle@dutyCycle+1)^(0+128)
  1121     077B  083B               	movf	_dutycycle^(0+128),w
  1122     077C  00AF               	movwf	applyPWMDutyCycle@dutyCycle^(0+128)
  1123     077D  3000               	movlw	0
  1124     077E  00B4               	movwf	(applyPWMDutyCycle@freq+3)^(0+128)
  1125     077F  3000               	movlw	0
  1126     0780  00B3               	movwf	(applyPWMDutyCycle@freq+2)^(0+128)
  1127     0781  3013               	movlw	19
  1128     0782  00B2               	movwf	(applyPWMDutyCycle@freq+1)^(0+128)
  1129     0783  3088               	movlw	136
  1130     0784  00B1               	movwf	applyPWMDutyCycle@freq^(0+128)
  1131     0785  120A  158A  2742  120A  118A  	fcall	_applyPWMDutyCycle
  1132     078A                     l2204:
  1133                           
  1134                           ;main.c: 149:                 dutyCycleApply = dutycycle;
  1135     078A  1683               	bsf	3,5	;RP0=1, select bank1
  1136     078B  1303               	bcf	3,6	;RP1=0, select bank1
  1137     078C  083C               	movf	(_dutycycle+1)^(0+128),w
  1138     078D  00BA               	movwf	(_dutyCycleApply+1)^(0+128)
  1139     078E  083B               	movf	_dutycycle^(0+128),w
  1140     078F  00B9               	movwf	_dutyCycleApply^(0+128)
  1141     0790  2F3B               	goto	l2186
  1142     0791                     l2206:
  1143     0791  3003               	movlw	3
  1144     0792  066E               	xorwf	_dato,w
  1145     0793  1D03               	btfss	3,2
  1146     0794  2F96               	goto	u3141
  1147     0795  2F97               	goto	u3140
  1148     0796                     u3141:
  1149     0796  2FB6               	goto	l87
  1150     0797                     u3140:
  1151     0797                     l2208:
  1152                           
  1153                           ;main.c: 153:             dutycycle = 0;
  1154     0797  1683               	bsf	3,5	;RP0=1, select bank1
  1155     0798  1303               	bcf	3,6	;RP1=0, select bank1
  1156     0799  01BB               	clrf	_dutycycle^(0+128)
  1157     079A  01BC               	clrf	(_dutycycle+1)^(0+128)
  1158     079B                     l2210:
  1159                           
  1160                           ;main.c: 154:             if (dutycycle != dutyCycleApply){
  1161     079B  0839               	movf	_dutyCycleApply^(0+128),w
  1162     079C  043A               	iorwf	(_dutyCycleApply+1)^(0+128),w
  1163     079D  1903               	btfsc	3,2
  1164     079E  2FA0               	goto	u3151
  1165     079F  2FA1               	goto	u3150
  1166     07A0                     u3151:
  1167     07A0  2FB6               	goto	l87
  1168     07A1                     u3150:
  1169     07A1                     l2212:
  1170                           
  1171                           ;main.c: 155:                 applyPWMDutyCycle(dutycycle,pwmFreq);
  1172     07A1  3000               	movlw	0
  1173     07A2  00AF               	movwf	applyPWMDutyCycle@dutyCycle^(0+128)
  1174     07A3  00B0               	movwf	(applyPWMDutyCycle@dutyCycle+1)^(0+128)
  1175     07A4  3000               	movlw	0
  1176     07A5  00B4               	movwf	(applyPWMDutyCycle@freq+3)^(0+128)
  1177     07A6  3000               	movlw	0
  1178     07A7  00B3               	movwf	(applyPWMDutyCycle@freq+2)^(0+128)
  1179     07A8  3013               	movlw	19
  1180     07A9  00B2               	movwf	(applyPWMDutyCycle@freq+1)^(0+128)
  1181     07AA  3088               	movlw	136
  1182     07AB  00B1               	movwf	applyPWMDutyCycle@freq^(0+128)
  1183     07AC  120A  158A  2742  120A  118A  	fcall	_applyPWMDutyCycle
  1184     07B1                     l2214:
  1185                           
  1186                           ;main.c: 156:                 dutyCycleApply = dutycycle;
  1187     07B1  1683               	bsf	3,5	;RP0=1, select bank1
  1188     07B2  1303               	bcf	3,6	;RP1=0, select bank1
  1189     07B3  01B9               	clrf	_dutyCycleApply^(0+128)
  1190     07B4  01BA               	clrf	(_dutyCycleApply+1)^(0+128)
  1191     07B5  2F3B               	goto	l2186
  1192     07B6                     l87:
  1193     07B6  2F3B               	goto	l2186
  1194     07B7  120A  118A  280C   	ljmp	start
  1195     07BA                     __end_of_main:
  1196                           
  1197                           	psect	text1
  1198     0B6D                     __ptext1:	
  1199 ;; *************** function _setupTMR0 *****************
  1200 ;; Defined at:
  1201 ;;		line 173 in file "main.c"
  1202 ;; Parameters:    Size  Location     Type
  1203 ;;		None
  1204 ;; Auto vars:     Size  Location     Type
  1205 ;;		None
  1206 ;; Return value:  Size  Location     Type
  1207 ;;                  1    wreg      void 
  1208 ;; Registers used:
  1209 ;;		wreg, status,2, status,0
  1210 ;; Tracked objects:
  1211 ;;		On entry : 0/0
  1212 ;;		On exit  : 0/0
  1213 ;;		Unchanged: 0/0
  1214 ;; Data sizes:     COMMON   BANK0   BANK1   BANK3   BANK2
  1215 ;;      Params:         0       0       0       0       0
  1216 ;;      Locals:         0       0       0       0       0
  1217 ;;      Temps:          0       0       0       0       0
  1218 ;;      Totals:         0       0       0       0       0
  1219 ;;Total ram usage:        0 bytes
  1220 ;; Hardware stack levels used: 1
  1221 ;; Hardware stack levels required when called: 1
  1222 ;; This function calls:
  1223 ;;		Nothing
  1224 ;; This function is called by:
  1225 ;;		_main
  1226 ;; This function uses a non-reentrant model
  1227 ;;
  1228                           
  1229     0B6D                     _setupTMR0:	
  1230                           ;psect for function _setupTMR0
  1231                           
  1232     0B6D                     l1928:	
  1233                           ;incstack = 0
  1234                           ; Regs used in _setupTMR0: [wreg+status,2+status,0]
  1235                           
  1236                           
  1237                           ;main.c: 174:     INTCONbits.GIE = 1;
  1238     0B6D  178B               	bsf	11,7	;volatile
  1239                           
  1240                           ;main.c: 175:     INTCONbits.T0IE = 1;
  1241     0B6E  168B               	bsf	11,5	;volatile
  1242                           
  1243                           ;main.c: 176:     INTCONbits.T0IF = 0;
  1244     0B6F  110B               	bcf	11,2	;volatile
  1245                           
  1246                           ;main.c: 178:     OPTION_REGbits.T0CS = 0;
  1247     0B70  1683               	bsf	3,5	;RP0=1, select bank1
  1248     0B71  1303               	bcf	3,6	;RP1=0, select bank1
  1249     0B72  1281               	bcf	1,5	;volatile
  1250                           
  1251                           ;main.c: 179:     OPTION_REGbits.T0SE = 0;
  1252     0B73  1201               	bcf	1,4	;volatile
  1253                           
  1254                           ;main.c: 180:     OPTION_REGbits.PSA = 0;
  1255     0B74  1181               	bcf	1,3	;volatile
  1256     0B75                     l1930:
  1257                           
  1258                           ;main.c: 181:     OPTION_REGbits.PS = 0b111;
  1259     0B75  3007               	movlw	7
  1260     0B76  0481               	iorwf	1,f	;volatile
  1261     0B77                     l1932:
  1262                           
  1263                           ;main.c: 182:     TMR0 = 100;
  1264     0B77  3064               	movlw	100
  1265     0B78  1283               	bcf	3,5	;RP0=0, select bank0
  1266     0B79  1303               	bcf	3,6	;RP1=0, select bank0
  1267     0B7A  0081               	movwf	1	;volatile
  1268     0B7B                     l101:
  1269     0B7B  0008               	return
  1270     0B7C                     __end_of_setupTMR0:
  1271                           
  1272                           	psect	text2
  1273     0B8D                     __ptext2:	
  1274 ;; *************** function _setupPWM *****************
  1275 ;; Defined at:
  1276 ;;		line 11 in file "PWM.c"
  1277 ;; Parameters:    Size  Location     Type
  1278 ;;		None
  1279 ;; Auto vars:     Size  Location     Type
  1280 ;;		None
  1281 ;; Return value:  Size  Location     Type
  1282 ;;                  1    wreg      void 
  1283 ;; Registers used:
  1284 ;;		wreg, status,2, status,0
  1285 ;; Tracked objects:
  1286 ;;		On entry : 0/0
  1287 ;;		On exit  : 0/0
  1288 ;;		Unchanged: 0/0
  1289 ;; Data sizes:     COMMON   BANK0   BANK1   BANK3   BANK2
  1290 ;;      Params:         0       0       0       0       0
  1291 ;;      Locals:         0       0       0       0       0
  1292 ;;      Temps:          0       0       0       0       0
  1293 ;;      Totals:         0       0       0       0       0
  1294 ;;Total ram usage:        0 bytes
  1295 ;; Hardware stack levels used: 1
  1296 ;; Hardware stack levels required when called: 1
  1297 ;; This function calls:
  1298 ;;		Nothing
  1299 ;; This function is called by:
  1300 ;;		_main
  1301 ;; This function uses a non-reentrant model
  1302 ;;
  1303                           
  1304     0B8D                     _setupPWM:	
  1305                           ;psect for function _setupPWM
  1306                           
  1307     0B8D                     l1934:	
  1308                           ;incstack = 0
  1309                           ; Regs used in _setupPWM: [wreg+status,2+status,0]
  1310                           
  1311                           
  1312                           ;PWM.c: 13:     TRISCbits.TRISC2 = 1;
  1313     0B8D  1683               	bsf	3,5	;RP0=1, select bank1
  1314     0B8E  1303               	bcf	3,6	;RP1=0, select bank1
  1315     0B8F  1507               	bsf	7,2	;volatile
  1316     0B90                     l1936:
  1317                           
  1318                           ;PWM.c: 14:     CCP1CON = 0b00001100;
  1319     0B90  300C               	movlw	12
  1320     0B91  1283               	bcf	3,5	;RP0=0, select bank0
  1321     0B92  1303               	bcf	3,6	;RP1=0, select bank0
  1322     0B93  0097               	movwf	23	;volatile
  1323     0B94                     l1938:
  1324                           
  1325                           ;PWM.c: 16:     TMR2IF = 0;
  1326     0B94  108C               	bcf	12,1	;volatile
  1327     0B95                     l1940:
  1328                           
  1329                           ;PWM.c: 17:     T2CONbits.T2CKPS = 0b01;
  1330     0B95  0812               	movf	18,w	;volatile
  1331     0B96  39FC               	andlw	-4
  1332     0B97  3801               	iorlw	1
  1333     0B98  0092               	movwf	18	;volatile
  1334     0B99                     l1942:
  1335                           
  1336                           ;PWM.c: 18:     TMR2ON = 1;
  1337     0B99  1512               	bsf	18,2	;volatile
  1338     0B9A                     l223:	
  1339                           ;PWM.c: 20:     while(!TMR2IF);
  1340                           
  1341     0B9A  1C8C               	btfss	12,1	;volatile
  1342     0B9B  2B9D               	goto	u2551
  1343     0B9C  2B9E               	goto	u2550
  1344     0B9D                     u2551:
  1345     0B9D  2B9A               	goto	l223
  1346     0B9E                     u2550:
  1347     0B9E                     l225:
  1348                           
  1349                           ;PWM.c: 21:     TRISCbits.TRISC2 = 0;
  1350     0B9E  1683               	bsf	3,5	;RP0=1, select bank1
  1351     0B9F  1303               	bcf	3,6	;RP1=0, select bank1
  1352     0BA0  1107               	bcf	7,2	;volatile
  1353     0BA1                     l226:
  1354     0BA1  0008               	return
  1355     0BA2                     __end_of_setupPWM:
  1356                           
  1357                           	psect	text3
  1358     0CA4                     __ptext3:	
  1359 ;; *************** function _setupINTOSC *****************
  1360 ;; Defined at:
  1361 ;;		line 10 in file "oscilador.c"
  1362 ;; Parameters:    Size  Location     Type
  1363 ;;  IRCF            1    wreg     unsigned char 
  1364 ;; Auto vars:     Size  Location     Type
  1365 ;;  IRCF            1    4[COMMON] unsigned char 
  1366 ;; Return value:  Size  Location     Type
  1367 ;;                  1    wreg      void 
  1368 ;; Registers used:
  1369 ;;		wreg, status,2, status,0
  1370 ;; Tracked objects:
  1371 ;;		On entry : 0/0
  1372 ;;		On exit  : 0/0
  1373 ;;		Unchanged: 0/0
  1374 ;; Data sizes:     COMMON   BANK0   BANK1   BANK3   BANK2
  1375 ;;      Params:         0       0       0       0       0
  1376 ;;      Locals:         1       0       0       0       0
  1377 ;;      Temps:          0       0       0       0       0
  1378 ;;      Totals:         1       0       0       0       0
  1379 ;;Total ram usage:        1 bytes
  1380 ;; Hardware stack levels used: 1
  1381 ;; Hardware stack levels required when called: 1
  1382 ;; This function calls:
  1383 ;;		Nothing
  1384 ;; This function is called by:
  1385 ;;		_main
  1386 ;; This function uses a non-reentrant model
  1387 ;;
  1388                           
  1389     0CA4                     _setupINTOSC:	
  1390                           ;psect for function _setupINTOSC
  1391                           
  1392                           
  1393                           ;incstack = 0
  1394                           ; Regs used in _setupINTOSC: [wreg+status,2+status,0]
  1395                           ;setupINTOSC@IRCF stored from wreg
  1396     0CA4  00F4               	movwf	setupINTOSC@IRCF
  1397     0CA5                     l1900:
  1398                           
  1399                           ;oscilador.c: 11:     if (IRCF == 7){
  1400     0CA5  3007               	movlw	7
  1401     0CA6  0674               	xorwf	setupINTOSC@IRCF,w
  1402     0CA7  1D03               	btfss	3,2
  1403     0CA8  2CAA               	goto	u2471
  1404     0CA9  2CAB               	goto	u2470
  1405     0CAA                     u2471:
  1406     0CAA  2CAF               	goto	l161
  1407     0CAB                     u2470:
  1408     0CAB                     l1902:
  1409                           
  1410                           ;oscilador.c: 12:         OSCCONbits.IRCF = 0b111;
  1411     0CAB  3070               	movlw	112
  1412     0CAC  1683               	bsf	3,5	;RP0=1, select bank1
  1413     0CAD  1303               	bcf	3,6	;RP1=0, select bank1
  1414     0CAE  048F               	iorwf	15,f	;volatile
  1415     0CAF                     l161:	
  1416                           ;oscilador.c: 13:     }
  1417                           
  1418                           
  1419                           ;oscilador.c: 14:     if (IRCF == 6){
  1420     0CAF  3006               	movlw	6
  1421     0CB0  0674               	xorwf	setupINTOSC@IRCF,w
  1422     0CB1  1D03               	btfss	3,2
  1423     0CB2  2CB4               	goto	u2481
  1424     0CB3  2CB5               	goto	u2480
  1425     0CB4                     u2481:
  1426     0CB4  2CBB               	goto	l162
  1427     0CB5                     u2480:
  1428     0CB5                     l1904:
  1429                           
  1430                           ;oscilador.c: 15:         OSCCONbits.IRCF = 0b110;
  1431     0CB5  1683               	bsf	3,5	;RP0=1, select bank1
  1432     0CB6  1303               	bcf	3,6	;RP1=0, select bank1
  1433     0CB7  080F               	movf	15,w	;volatile
  1434     0CB8  398F               	andlw	-113
  1435     0CB9  3860               	iorlw	96
  1436     0CBA  008F               	movwf	15	;volatile
  1437     0CBB                     l162:	
  1438                           ;oscilador.c: 16:     }
  1439                           
  1440                           
  1441                           ;oscilador.c: 17:     if (IRCF == 5){
  1442     0CBB  3005               	movlw	5
  1443     0CBC  0674               	xorwf	setupINTOSC@IRCF,w
  1444     0CBD  1D03               	btfss	3,2
  1445     0CBE  2CC0               	goto	u2491
  1446     0CBF  2CC1               	goto	u2490
  1447     0CC0                     u2491:
  1448     0CC0  2CC7               	goto	l163
  1449     0CC1                     u2490:
  1450     0CC1                     l1906:
  1451                           
  1452                           ;oscilador.c: 18:         OSCCONbits.IRCF = 0b101;
  1453     0CC1  1683               	bsf	3,5	;RP0=1, select bank1
  1454     0CC2  1303               	bcf	3,6	;RP1=0, select bank1
  1455     0CC3  080F               	movf	15,w	;volatile
  1456     0CC4  398F               	andlw	-113
  1457     0CC5  3850               	iorlw	80
  1458     0CC6  008F               	movwf	15	;volatile
  1459     0CC7                     l163:	
  1460                           ;oscilador.c: 19:     }
  1461                           
  1462                           
  1463                           ;oscilador.c: 20:     if (IRCF == 4){
  1464     0CC7  3004               	movlw	4
  1465     0CC8  0674               	xorwf	setupINTOSC@IRCF,w
  1466     0CC9  1D03               	btfss	3,2
  1467     0CCA  2CCC               	goto	u2501
  1468     0CCB  2CCD               	goto	u2500
  1469     0CCC                     u2501:
  1470     0CCC  2CD3               	goto	l164
  1471     0CCD                     u2500:
  1472     0CCD                     l1908:
  1473                           
  1474                           ;oscilador.c: 21:         OSCCONbits.IRCF = 0b100;
  1475     0CCD  1683               	bsf	3,5	;RP0=1, select bank1
  1476     0CCE  1303               	bcf	3,6	;RP1=0, select bank1
  1477     0CCF  080F               	movf	15,w	;volatile
  1478     0CD0  398F               	andlw	-113
  1479     0CD1  3840               	iorlw	64
  1480     0CD2  008F               	movwf	15	;volatile
  1481     0CD3                     l164:	
  1482                           ;oscilador.c: 22:     }
  1483                           
  1484                           
  1485                           ;oscilador.c: 23:     if (IRCF == 3){
  1486     0CD3  3003               	movlw	3
  1487     0CD4  0674               	xorwf	setupINTOSC@IRCF,w
  1488     0CD5  1D03               	btfss	3,2
  1489     0CD6  2CD8               	goto	u2511
  1490     0CD7  2CD9               	goto	u2510
  1491     0CD8                     u2511:
  1492     0CD8  2CDF               	goto	l165
  1493     0CD9                     u2510:
  1494     0CD9                     l1910:
  1495                           
  1496                           ;oscilador.c: 24:         OSCCONbits.IRCF = 0b011;
  1497     0CD9  1683               	bsf	3,5	;RP0=1, select bank1
  1498     0CDA  1303               	bcf	3,6	;RP1=0, select bank1
  1499     0CDB  080F               	movf	15,w	;volatile
  1500     0CDC  398F               	andlw	-113
  1501     0CDD  3830               	iorlw	48
  1502     0CDE  008F               	movwf	15	;volatile
  1503     0CDF                     l165:	
  1504                           ;oscilador.c: 25:     }
  1505                           
  1506                           
  1507                           ;oscilador.c: 26:     if (IRCF == 2){
  1508     0CDF  3002               	movlw	2
  1509     0CE0  0674               	xorwf	setupINTOSC@IRCF,w
  1510     0CE1  1D03               	btfss	3,2
  1511     0CE2  2CE4               	goto	u2521
  1512     0CE3  2CE5               	goto	u2520
  1513     0CE4                     u2521:
  1514     0CE4  2CEB               	goto	l166
  1515     0CE5                     u2520:
  1516     0CE5                     l1912:
  1517                           
  1518                           ;oscilador.c: 27:         OSCCONbits.IRCF = 0b010;
  1519     0CE5  1683               	bsf	3,5	;RP0=1, select bank1
  1520     0CE6  1303               	bcf	3,6	;RP1=0, select bank1
  1521     0CE7  080F               	movf	15,w	;volatile
  1522     0CE8  398F               	andlw	-113
  1523     0CE9  3820               	iorlw	32
  1524     0CEA  008F               	movwf	15	;volatile
  1525     0CEB                     l166:	
  1526                           ;oscilador.c: 28:     }
  1527                           
  1528                           
  1529                           ;oscilador.c: 29:     if (IRCF == 1){
  1530     0CEB  0374               	decf	setupINTOSC@IRCF,w
  1531     0CEC  1D03               	btfss	3,2
  1532     0CED  2CEF               	goto	u2531
  1533     0CEE  2CF0               	goto	u2530
  1534     0CEF                     u2531:
  1535     0CEF  2CF6               	goto	l167
  1536     0CF0                     u2530:
  1537     0CF0                     l1914:
  1538                           
  1539                           ;oscilador.c: 30:         OSCCONbits.IRCF = 0b001;
  1540     0CF0  1683               	bsf	3,5	;RP0=1, select bank1
  1541     0CF1  1303               	bcf	3,6	;RP1=0, select bank1
  1542     0CF2  080F               	movf	15,w	;volatile
  1543     0CF3  398F               	andlw	-113
  1544     0CF4  3810               	iorlw	16
  1545     0CF5  008F               	movwf	15	;volatile
  1546     0CF6                     l167:	
  1547                           ;oscilador.c: 31:     }
  1548                           
  1549                           
  1550                           ;oscilador.c: 32:     if (IRCF == 0){
  1551     0CF6  0874               	movf	setupINTOSC@IRCF,w
  1552     0CF7  1D03               	btfss	3,2
  1553     0CF8  2CFA               	goto	u2541
  1554     0CF9  2CFB               	goto	u2540
  1555     0CFA                     u2541:
  1556     0CFA  2CFF               	goto	l1918
  1557     0CFB                     u2540:
  1558     0CFB                     l1916:
  1559                           
  1560                           ;oscilador.c: 33:         OSCCONbits.IRCF = 0b000;
  1561     0CFB  308F               	movlw	-113
  1562     0CFC  1683               	bsf	3,5	;RP0=1, select bank1
  1563     0CFD  1303               	bcf	3,6	;RP1=0, select bank1
  1564     0CFE  058F               	andwf	15,f	;volatile
  1565     0CFF                     l1918:
  1566                           
  1567                           ;oscilador.c: 36:     OSCCONbits.SCS = 1;
  1568     0CFF  1683               	bsf	3,5	;RP0=1, select bank1
  1569     0D00  1303               	bcf	3,6	;RP1=0, select bank1
  1570     0D01  140F               	bsf	15,0	;volatile
  1571     0D02                     l169:
  1572     0D02  0008               	return
  1573     0D03                     __end_of_setupINTOSC:
  1574                           
  1575                           	psect	text4
  1576     0B7C                     __ptext4:	
  1577 ;; *************** function _portsetup *****************
  1578 ;; Defined at:
  1579 ;;		line 165 in file "main.c"
  1580 ;; Parameters:    Size  Location     Type
  1581 ;;		None
  1582 ;; Auto vars:     Size  Location     Type
  1583 ;;		None
  1584 ;; Return value:  Size  Location     Type
  1585 ;;                  1    wreg      void 
  1586 ;; Registers used:
  1587 ;;		wreg, status,2, status,0, pclath, cstack
  1588 ;; Tracked objects:
  1589 ;;		On entry : 0/0
  1590 ;;		On exit  : 0/0
  1591 ;;		Unchanged: 0/0
  1592 ;; Data sizes:     COMMON   BANK0   BANK1   BANK3   BANK2
  1593 ;;      Params:         0       0       0       0       0
  1594 ;;      Locals:         0       0       0       0       0
  1595 ;;      Temps:          0       0       0       0       0
  1596 ;;      Totals:         0       0       0       0       0
  1597 ;;Total ram usage:        0 bytes
  1598 ;; Hardware stack levels used: 1
  1599 ;; Hardware stack levels required when called: 2
  1600 ;; This function calls:
  1601 ;;		_I2C_Slave_Init
  1602 ;; This function is called by:
  1603 ;;		_main
  1604 ;; This function uses a non-reentrant model
  1605 ;;
  1606                           
  1607     0B7C                     _portsetup:	
  1608                           ;psect for function _portsetup
  1609                           
  1610     0B7C                     l1920:	
  1611                           ;incstack = 0
  1612                           ; Regs used in _portsetup: [wreg+status,2+status,0+pclath+cstack]
  1613                           
  1614                           
  1615                           ;main.c: 166:     ANSEL = 0;
  1616     0B7C  1683               	bsf	3,5	;RP0=1, select bank3
  1617     0B7D  1703               	bsf	3,6	;RP1=1, select bank3
  1618     0B7E  0188               	clrf	8	;volatile
  1619                           
  1620                           ;main.c: 167:     ANSELH = 0;
  1621     0B7F  0189               	clrf	9	;volatile
  1622     0B80                     l1922:
  1623                           
  1624                           ;main.c: 168:     TRISDbits.TRISD1 = 0;
  1625     0B80  1683               	bsf	3,5	;RP0=1, select bank1
  1626     0B81  1303               	bcf	3,6	;RP1=0, select bank1
  1627     0B82  1088               	bcf	8,1	;volatile
  1628     0B83                     l1924:
  1629                           
  1630                           ;main.c: 169:     PORTDbits.RD1 = 0;
  1631     0B83  1283               	bcf	3,5	;RP0=0, select bank0
  1632     0B84  1303               	bcf	3,6	;RP1=0, select bank0
  1633     0B85  1088               	bcf	8,1	;volatile
  1634     0B86                     l1926:
  1635                           
  1636                           ;main.c: 170:     I2C_Slave_Init(0xb0);
  1637     0B86  30B0               	movlw	176
  1638     0B87  120A  158A  23A2  120A  158A  	fcall	_I2C_Slave_Init
  1639     0B8C                     l98:
  1640     0B8C  0008               	return
  1641     0B8D                     __end_of_portsetup:
  1642                           
  1643                           	psect	text5
  1644     0BA2                     __ptext5:	
  1645 ;; *************** function _I2C_Slave_Init *****************
  1646 ;; Defined at:
  1647 ;;		line 93 in file "I2C.c"
  1648 ;; Parameters:    Size  Location     Type
  1649 ;;  address         1    wreg     unsigned char 
  1650 ;; Auto vars:     Size  Location     Type
  1651 ;;  address         1    4[COMMON] unsigned char 
  1652 ;; Return value:  Size  Location     Type
  1653 ;;                  1    wreg      void 
  1654 ;; Registers used:
  1655 ;;		wreg
  1656 ;; Tracked objects:
  1657 ;;		On entry : 0/0
  1658 ;;		On exit  : 0/0
  1659 ;;		Unchanged: 0/0
  1660 ;; Data sizes:     COMMON   BANK0   BANK1   BANK3   BANK2
  1661 ;;      Params:         0       0       0       0       0
  1662 ;;      Locals:         1       0       0       0       0
  1663 ;;      Temps:          0       0       0       0       0
  1664 ;;      Totals:         1       0       0       0       0
  1665 ;;Total ram usage:        1 bytes
  1666 ;; Hardware stack levels used: 1
  1667 ;; Hardware stack levels required when called: 1
  1668 ;; This function calls:
  1669 ;;		Nothing
  1670 ;; This function is called by:
  1671 ;;		_portsetup
  1672 ;; This function uses a non-reentrant model
  1673 ;;
  1674                           
  1675     0BA2                     _I2C_Slave_Init:	
  1676                           ;psect for function _I2C_Slave_Init
  1677                           
  1678                           
  1679                           ;incstack = 0
  1680                           ; Regs used in _I2C_Slave_Init: [wreg]
  1681                           ;I2C_Slave_Init@address stored from wreg
  1682     0BA2  00F4               	movwf	I2C_Slave_Init@address
  1683     0BA3                     l1520:
  1684                           
  1685                           ;I2C.c: 93: void I2C_Slave_Init(uint8_t address);I2C.c: 94: {;I2C.c: 95:     SSPADD = ad
      +                          dress;
  1686     0BA3  0874               	movf	I2C_Slave_Init@address,w
  1687     0BA4  1683               	bsf	3,5	;RP0=1, select bank1
  1688     0BA5  1303               	bcf	3,6	;RP1=0, select bank1
  1689     0BA6  0093               	movwf	19	;volatile
  1690                           
  1691                           ;I2C.c: 96:     SSPCON = 0x36;
  1692     0BA7  3036               	movlw	54
  1693     0BA8  1283               	bcf	3,5	;RP0=0, select bank0
  1694     0BA9  1303               	bcf	3,6	;RP1=0, select bank0
  1695     0BAA  0094               	movwf	20	;volatile
  1696                           
  1697                           ;I2C.c: 97:     SSPSTAT = 0x80;
  1698     0BAB  3080               	movlw	128
  1699     0BAC  1683               	bsf	3,5	;RP0=1, select bank1
  1700     0BAD  1303               	bcf	3,6	;RP1=0, select bank1
  1701     0BAE  0094               	movwf	20	;volatile
  1702                           
  1703                           ;I2C.c: 98:     SSPCON2 = 0x01;
  1704     0BAF  3001               	movlw	1
  1705     0BB0  0091               	movwf	17	;volatile
  1706     0BB1                     l1522:
  1707                           
  1708                           ;I2C.c: 99:     TRISC3 = 1;
  1709     0BB1  1587               	bsf	7,3	;volatile
  1710     0BB2                     l1524:
  1711                           
  1712                           ;I2C.c: 100:     TRISC4 = 1;
  1713     0BB2  1607               	bsf	7,4	;volatile
  1714     0BB3                     l1526:
  1715                           
  1716                           ;I2C.c: 101:     GIE = 1;
  1717     0BB3  178B               	bsf	11,7	;volatile
  1718     0BB4                     l1528:
  1719                           
  1720                           ;I2C.c: 102:     PEIE = 1;
  1721     0BB4  170B               	bsf	11,6	;volatile
  1722     0BB5                     l1530:
  1723                           
  1724                           ;I2C.c: 103:     SSPIF = 0;
  1725     0BB5  1283               	bcf	3,5	;RP0=0, select bank0
  1726     0BB6  1303               	bcf	3,6	;RP1=0, select bank0
  1727     0BB7  118C               	bcf	12,3	;volatile
  1728     0BB8                     l1532:
  1729                           
  1730                           ;I2C.c: 104:     SSPIE = 1;
  1731     0BB8  1683               	bsf	3,5	;RP0=1, select bank1
  1732     0BB9  1303               	bcf	3,6	;RP1=0, select bank1
  1733     0BBA  158C               	bsf	12,3	;volatile
  1734     0BBB                     l156:
  1735     0BBB  0008               	return
  1736     0BBC                     __end_of_I2C_Slave_Init:
  1737                           
  1738                           	psect	text6
  1739     07BA                     __ptext6:	
  1740 ;; *************** function _initPwm *****************
  1741 ;; Defined at:
  1742 ;;		line 31 in file "PWM.c"
  1743 ;; Parameters:    Size  Location     Type
  1744 ;;  freq            4   13[BANK0 ] const unsigned long 
  1745 ;; Auto vars:     Size  Location     Type
  1746 ;;		None
  1747 ;; Return value:  Size  Location     Type
  1748 ;;                  1    wreg      void 
  1749 ;; Registers used:
  1750 ;;		wreg, status,2, status,0, pclath, cstack
  1751 ;; Tracked objects:
  1752 ;;		On entry : 0/0
  1753 ;;		On exit  : 0/0
  1754 ;;		Unchanged: 0/0
  1755 ;; Data sizes:     COMMON   BANK0   BANK1   BANK3   BANK2
  1756 ;;      Params:         0       4       0       0       0
  1757 ;;      Locals:         0       0       0       0       0
  1758 ;;      Temps:          4       0       0       0       0
  1759 ;;      Totals:         4       4       0       0       0
  1760 ;;Total ram usage:        8 bytes
  1761 ;; Hardware stack levels used: 1
  1762 ;; Hardware stack levels required when called: 2
  1763 ;; This function calls:
  1764 ;;		___lldiv
  1765 ;; This function is called by:
  1766 ;;		_main
  1767 ;; This function uses a non-reentrant model
  1768 ;;
  1769                           
  1770     07BA                     _initPwm:	
  1771                           ;psect for function _initPwm
  1772                           
  1773     07BA                     l2168:	
  1774                           ;incstack = 0
  1775                           ; Regs used in _initPwm: [wreg+status,2+status,0+pclath+cstack]
  1776                           
  1777                           
  1778                           ;PWM.c: 31: void initPwm(const uint32_t freq);PWM.c: 32: {;PWM.c: 34:     PR2 = (uint8_t
      +                          )((8000000/(freq*4*4)) - 1);
  1779     07BA  1283               	bcf	3,5	;RP0=0, select bank0
  1780     07BB  1303               	bcf	3,6	;RP1=0, select bank0
  1781     07BC  082D               	movf	initPwm@freq,w
  1782     07BD  00F5               	movwf	??_initPwm
  1783     07BE  082E               	movf	initPwm@freq+1,w
  1784     07BF  00F6               	movwf	??_initPwm+1
  1785     07C0  082F               	movf	initPwm@freq+2,w
  1786     07C1  00F7               	movwf	??_initPwm+2
  1787     07C2  0830               	movf	initPwm@freq+3,w
  1788     07C3  00F8               	movwf	??_initPwm+3
  1789     07C4  3002               	movlw	2
  1790     07C5                     u3065:
  1791     07C5  1003               	clrc
  1792     07C6  0DF5               	rlf	??_initPwm,f
  1793     07C7  0DF6               	rlf	??_initPwm+1,f
  1794     07C8  0DF7               	rlf	??_initPwm+2,f
  1795     07C9  0DF8               	rlf	??_initPwm+3,f
  1796     07CA                     u3060:
  1797     07CA  3EFF               	addlw	-1
  1798     07CB  1D03               	skipz
  1799     07CC  2FC5               	goto	u3065
  1800     07CD  3002               	movlw	2
  1801     07CE                     u3075:
  1802     07CE  1003               	clrc
  1803     07CF  0DF5               	rlf	??_initPwm,f
  1804     07D0  0DF6               	rlf	??_initPwm+1,f
  1805     07D1  0DF7               	rlf	??_initPwm+2,f
  1806     07D2  0DF8               	rlf	??_initPwm+3,f
  1807     07D3                     u3070:
  1808     07D3  3EFF               	addlw	-1
  1809     07D4  1D03               	skipz
  1810     07D5  2FCE               	goto	u3075
  1811     07D6  0878               	movf	??_initPwm+3,w
  1812     07D7  00A3               	movwf	___lldiv@divisor+3
  1813     07D8  0877               	movf	??_initPwm+2,w
  1814     07D9  00A2               	movwf	___lldiv@divisor+2
  1815     07DA  0876               	movf	??_initPwm+1,w
  1816     07DB  00A1               	movwf	___lldiv@divisor+1
  1817     07DC  0875               	movf	??_initPwm,w
  1818     07DD  00A0               	movwf	___lldiv@divisor
  1819     07DE  3000               	movlw	0
  1820     07DF  00A7               	movwf	___lldiv@dividend+3
  1821     07E0  307A               	movlw	122
  1822     07E1  00A6               	movwf	___lldiv@dividend+2
  1823     07E2  3012               	movlw	18
  1824     07E3  00A5               	movwf	___lldiv@dividend+1
  1825     07E4  3000               	movlw	0
  1826     07E5  00A4               	movwf	___lldiv@dividend
  1827     07E6  120A  158A  2503  120A  118A  	fcall	___lldiv
  1828     07EB  1283               	bcf	3,5	;RP0=0, select bank0
  1829     07EC  1303               	bcf	3,6	;RP1=0, select bank0
  1830     07ED  0820               	movf	?___lldiv,w
  1831     07EE  3EFF               	addlw	255
  1832     07EF  1683               	bsf	3,5	;RP0=1, select bank1
  1833     07F0  1303               	bcf	3,6	;RP1=0, select bank1
  1834     07F1  0092               	movwf	18	;volatile
  1835     07F2                     l232:
  1836     07F2  0008               	return
  1837     07F3                     __end_of_initPwm:
  1838                           
  1839                           	psect	text7
  1840     0F42                     __ptext7:	
  1841 ;; *************** function _applyPWMDutyCycle *****************
  1842 ;; Defined at:
  1843 ;;		line 38 in file "PWM.c"
  1844 ;; Parameters:    Size  Location     Type
  1845 ;;  dutyCycle       2   15[BANK1 ] unsigned int 
  1846 ;;  freq            4   17[BANK1 ] const unsigned long 
  1847 ;; Auto vars:     Size  Location     Type
  1848 ;;		None
  1849 ;; Return value:  Size  Location     Type
  1850 ;;                  1    wreg      void 
  1851 ;; Registers used:
  1852 ;;		wreg, status,2, status,0, btemp+1, pclath, cstack
  1853 ;; Tracked objects:
  1854 ;;		On entry : 0/0
  1855 ;;		On exit  : 0/0
  1856 ;;		Unchanged: 0/0
  1857 ;; Data sizes:     COMMON   BANK0   BANK1   BANK3   BANK2
  1858 ;;      Params:         0       0       6       0       0
  1859 ;;      Locals:         0       0       0       0       0
  1860 ;;      Temps:          0       0       2       0       0
  1861 ;;      Totals:         0       0       8       0       0
  1862 ;;Total ram usage:        8 bytes
  1863 ;; Hardware stack levels used: 1
  1864 ;; Hardware stack levels required when called: 3
  1865 ;; This function calls:
  1866 ;;		___fldiv
  1867 ;;		___flmul
  1868 ;;		___fltol
  1869 ;;		___xxtofl
  1870 ;;		_pwmMaxDuty
  1871 ;; This function is called by:
  1872 ;;		_main
  1873 ;; This function uses a non-reentrant model
  1874 ;;
  1875                           
  1876     0F42                     _applyPWMDutyCycle:	
  1877                           ;psect for function _applyPWMDutyCycle
  1878                           
  1879     0F42                     l2170:	
  1880                           ;incstack = 0
  1881                           ; Regs used in _applyPWMDutyCycle: [wreg+status,2+status,0+btemp+1+pclath+cstack]
  1882                           
  1883                           
  1884                           ;PWM.c: 38: void applyPWMDutyCycle(uint16_t dutyCycle, const uint32_t freq);PWM.c: 39: {
      +                          ;PWM.c: 40:     if(dutyCycle<1024)
  1885     0F42  3004               	movlw	4
  1886     0F43  1683               	bsf	3,5	;RP0=1, select bank1
  1887     0F44  1303               	bcf	3,6	;RP1=0, select bank1
  1888     0F45  0230               	subwf	(applyPWMDutyCycle@dutyCycle+1)^(0+128),w
  1889     0F46  3000               	movlw	0
  1890     0F47  1903               	skipnz
  1891     0F48  022F               	subwf	applyPWMDutyCycle@dutyCycle^(0+128),w
  1892     0F49  1803               	skipnc
  1893     0F4A  2F4C               	goto	u3081
  1894     0F4B  2F4D               	goto	u3080
  1895     0F4C                     u3081:
  1896     0F4C  2FFF               	goto	l236
  1897     0F4D                     u3080:
  1898     0F4D                     l2172:
  1899                           
  1900                           ;PWM.c: 41:     {;PWM.c: 43:         dutyCycle = (uint16_t)(((float)dutyCycle/1023)*pwmM
      +                          axDuty(freq));
  1901     0F4D  082F               	movf	applyPWMDutyCycle@dutyCycle^(0+128),w
  1902     0F4E  1283               	bcf	3,5	;RP0=0, select bank0
  1903     0F4F  1303               	bcf	3,6	;RP1=0, select bank0
  1904     0F50  00B1               	movwf	___xxtofl@val
  1905     0F51  1683               	bsf	3,5	;RP0=1, select bank1
  1906     0F52  1303               	bcf	3,6	;RP1=0, select bank1
  1907     0F53  0830               	movf	(applyPWMDutyCycle@dutyCycle+1)^(0+128),w
  1908     0F54  1283               	bcf	3,5	;RP0=0, select bank0
  1909     0F55  1303               	bcf	3,6	;RP1=0, select bank0
  1910     0F56  00B2               	movwf	___xxtofl@val+1
  1911     0F57  01B3               	clrf	___xxtofl@val+2
  1912     0F58  01B4               	clrf	___xxtofl@val+3
  1913     0F59  3000               	movlw	0
  1914     0F5A  120A  158A  2688  120A  158A  	fcall	___xxtofl
  1915     0F5F  1283               	bcf	3,5	;RP0=0, select bank0
  1916     0F60  1303               	bcf	3,6	;RP1=0, select bank0
  1917     0F61  0834               	movf	?___xxtofl+3,w
  1918     0F62  00C6               	movwf	___fldiv@b+3
  1919     0F63  0833               	movf	?___xxtofl+2,w
  1920     0F64  00C5               	movwf	___fldiv@b+2
  1921     0F65  0832               	movf	?___xxtofl+1,w
  1922     0F66  00C4               	movwf	___fldiv@b+1
  1923     0F67  0831               	movf	?___xxtofl,w
  1924     0F68  00C3               	movwf	___fldiv@b
  1925     0F69  3044               	movlw	68
  1926     0F6A  00C2               	movwf	___fldiv@a+3
  1927     0F6B  307F               	movlw	127
  1928     0F6C  00C1               	movwf	___fldiv@a+2
  1929     0F6D  30C0               	movlw	192
  1930     0F6E  00C0               	movwf	___fldiv@a+1
  1931     0F6F  3000               	movlw	0
  1932     0F70  00BF               	movwf	___fldiv@a
  1933     0F71  120A  118A  2528  120A  158A  	fcall	___fldiv
  1934     0F76  1283               	bcf	3,5	;RP0=0, select bank0
  1935     0F77  1303               	bcf	3,6	;RP1=0, select bank0
  1936     0F78  0842               	movf	?___fldiv+3,w
  1937     0F79  00E0               	movwf	___flmul@a+3
  1938     0F7A  0841               	movf	?___fldiv+2,w
  1939     0F7B  00DF               	movwf	___flmul@a+2
  1940     0F7C  0840               	movf	?___fldiv+1,w
  1941     0F7D  00DE               	movwf	___flmul@a+1
  1942     0F7E  083F               	movf	?___fldiv,w
  1943     0F7F  00DD               	movwf	___flmul@a
  1944     0F80  1683               	bsf	3,5	;RP0=1, select bank1
  1945     0F81  1303               	bcf	3,6	;RP1=0, select bank1
  1946     0F82  0834               	movf	(applyPWMDutyCycle@freq+3)^(0+128),w
  1947     0F83  1283               	bcf	3,5	;RP0=0, select bank0
  1948     0F84  1303               	bcf	3,6	;RP1=0, select bank0
  1949     0F85  00B0               	movwf	pwmMaxDuty@freq+3
  1950     0F86  1683               	bsf	3,5	;RP0=1, select bank1
  1951     0F87  1303               	bcf	3,6	;RP1=0, select bank1
  1952     0F88  0833               	movf	(applyPWMDutyCycle@freq+2)^(0+128),w
  1953     0F89  1283               	bcf	3,5	;RP0=0, select bank0
  1954     0F8A  1303               	bcf	3,6	;RP1=0, select bank0
  1955     0F8B  00AF               	movwf	pwmMaxDuty@freq+2
  1956     0F8C  1683               	bsf	3,5	;RP0=1, select bank1
  1957     0F8D  1303               	bcf	3,6	;RP1=0, select bank1
  1958     0F8E  0832               	movf	(applyPWMDutyCycle@freq+1)^(0+128),w
  1959     0F8F  1283               	bcf	3,5	;RP0=0, select bank0
  1960     0F90  1303               	bcf	3,6	;RP1=0, select bank0
  1961     0F91  00AE               	movwf	pwmMaxDuty@freq+1
  1962     0F92  1683               	bsf	3,5	;RP0=1, select bank1
  1963     0F93  1303               	bcf	3,6	;RP1=0, select bank1
  1964     0F94  0831               	movf	applyPWMDutyCycle@freq^(0+128),w
  1965     0F95  1283               	bcf	3,5	;RP0=0, select bank0
  1966     0F96  1303               	bcf	3,6	;RP1=0, select bank0
  1967     0F97  00AD               	movwf	pwmMaxDuty@freq
  1968     0F98  120A  158A  23E5  120A  158A  	fcall	_pwmMaxDuty
  1969     0F9D  1283               	bcf	3,5	;RP0=0, select bank0
  1970     0F9E  1303               	bcf	3,6	;RP1=0, select bank0
  1971     0F9F  0830               	movf	?_pwmMaxDuty+3,w
  1972     0FA0  00B4               	movwf	___xxtofl@val+3
  1973     0FA1  082F               	movf	?_pwmMaxDuty+2,w
  1974     0FA2  00B3               	movwf	___xxtofl@val+2
  1975     0FA3  082E               	movf	?_pwmMaxDuty+1,w
  1976     0FA4  00B2               	movwf	___xxtofl@val+1
  1977     0FA5  082D               	movf	?_pwmMaxDuty,w
  1978     0FA6  00B1               	movwf	___xxtofl@val
  1979     0FA7  3000               	movlw	0
  1980     0FA8  120A  158A  2688  120A  158A  	fcall	___xxtofl
  1981     0FAD  1283               	bcf	3,5	;RP0=0, select bank0
  1982     0FAE  1303               	bcf	3,6	;RP1=0, select bank0
  1983     0FAF  0834               	movf	?___xxtofl+3,w
  1984     0FB0  00DC               	movwf	___flmul@b+3
  1985     0FB1  0833               	movf	?___xxtofl+2,w
  1986     0FB2  00DB               	movwf	___flmul@b+2
  1987     0FB3  0832               	movf	?___xxtofl+1,w
  1988     0FB4  00DA               	movwf	___flmul@b+1
  1989     0FB5  0831               	movf	?___xxtofl,w
  1990     0FB6  00D9               	movwf	___flmul@b
  1991     0FB7  120A  118A  201F  120A  158A  	fcall	___flmul
  1992     0FBC  1283               	bcf	3,5	;RP0=0, select bank0
  1993     0FBD  1303               	bcf	3,6	;RP1=0, select bank0
  1994     0FBE  085C               	movf	?___flmul+3,w
  1995     0FBF  00E9               	movwf	___fltol@f1+3
  1996     0FC0  085B               	movf	?___flmul+2,w
  1997     0FC1  00E8               	movwf	___fltol@f1+2
  1998     0FC2  085A               	movf	?___flmul+1,w
  1999     0FC3  00E7               	movwf	___fltol@f1+1
  2000     0FC4  0859               	movf	?___flmul,w
  2001     0FC5  00E6               	movwf	___fltol@f1
  2002     0FC6  120A  158A  256B  120A  158A  	fcall	___fltol
  2003     0FCB  1283               	bcf	3,5	;RP0=0, select bank0
  2004     0FCC  1303               	bcf	3,6	;RP1=0, select bank0
  2005     0FCD  0867               	movf	?___fltol+1,w
  2006     0FCE  1683               	bsf	3,5	;RP0=1, select bank1
  2007     0FCF  1303               	bcf	3,6	;RP1=0, select bank1
  2008     0FD0  00B0               	movwf	(applyPWMDutyCycle@dutyCycle+1)^(0+128)
  2009     0FD1  1283               	bcf	3,5	;RP0=0, select bank0
  2010     0FD2  1303               	bcf	3,6	;RP1=0, select bank0
  2011     0FD3  0866               	movf	?___fltol,w
  2012     0FD4  1683               	bsf	3,5	;RP0=1, select bank1
  2013     0FD5  1303               	bcf	3,6	;RP1=0, select bank1
  2014     0FD6  00AF               	movwf	applyPWMDutyCycle@dutyCycle^(0+128)
  2015     0FD7                     l2174:
  2016                           
  2017                           ;PWM.c: 44:         CCP1CON &= 0xCF;
  2018     0FD7  30CF               	movlw	207
  2019     0FD8  00B5               	movwf	??_applyPWMDutyCycle^(0+128)
  2020     0FD9  0835               	movf	??_applyPWMDutyCycle^(0+128),w
  2021     0FDA  1283               	bcf	3,5	;RP0=0, select bank0
  2022     0FDB  1303               	bcf	3,6	;RP1=0, select bank0
  2023     0FDC  0597               	andwf	23,f	;volatile
  2024     0FDD                     l2176:
  2025                           
  2026                           ;PWM.c: 45:         CCP1CON |= (0x30&(dutyCycle<<4));
  2027     0FDD  1683               	bsf	3,5	;RP0=1, select bank1
  2028     0FDE  1303               	bcf	3,6	;RP1=0, select bank1
  2029     0FDF  082F               	movf	applyPWMDutyCycle@dutyCycle^(0+128),w	;volatile
  2030     0FE0  00B5               	movwf	??_applyPWMDutyCycle^(0+128)
  2031     0FE1  3003               	movlw	3
  2032     0FE2                     u3095:
  2033     0FE2  1003               	clrc
  2034     0FE3  0DB5               	rlf	??_applyPWMDutyCycle^(0+128),f
  2035     0FE4  3EFF               	addlw	-1
  2036     0FE5  1D03               	skipz
  2037     0FE6  2FE2               	goto	u3095
  2038     0FE7  1003               	clrc
  2039     0FE8  0D35               	rlf	??_applyPWMDutyCycle^(0+128),w
  2040     0FE9  3930               	andlw	48
  2041     0FEA  00B6               	movwf	(??_applyPWMDutyCycle+1)^(0+128)
  2042     0FEB  0836               	movf	(??_applyPWMDutyCycle+1)^(0+128),w
  2043     0FEC  1283               	bcf	3,5	;RP0=0, select bank0
  2044     0FED  1303               	bcf	3,6	;RP1=0, select bank0
  2045     0FEE  0497               	iorwf	23,f	;volatile
  2046     0FEF                     l2178:
  2047                           
  2048                           ;PWM.c: 46:         CCPR1L = (uint8_t)(dutyCycle>>2);
  2049     0FEF  1683               	bsf	3,5	;RP0=1, select bank1
  2050     0FF0  1303               	bcf	3,6	;RP1=0, select bank1
  2051     0FF1  0830               	movf	(applyPWMDutyCycle@dutyCycle+1)^(0+128),w
  2052     0FF2  00B6               	movwf	(??_applyPWMDutyCycle^(0+128)+1)
  2053     0FF3  082F               	movf	applyPWMDutyCycle@dutyCycle^(0+128),w
  2054     0FF4  00B5               	movwf	??_applyPWMDutyCycle^(0+128)
  2055     0FF5  1003               	clrc
  2056     0FF6  0CB6               	rrf	(??_applyPWMDutyCycle^(0+128)+1),f
  2057     0FF7  0CB5               	rrf	??_applyPWMDutyCycle^(0+128),f
  2058     0FF8  1003               	clrc
  2059     0FF9  0CB6               	rrf	(??_applyPWMDutyCycle^(0+128)+1),f
  2060     0FFA  0CB5               	rrf	??_applyPWMDutyCycle^(0+128),f
  2061     0FFB  0835               	movf	??_applyPWMDutyCycle^(0+128),w
  2062     0FFC  1283               	bcf	3,5	;RP0=0, select bank0
  2063     0FFD  1303               	bcf	3,6	;RP1=0, select bank0
  2064     0FFE  0095               	movwf	21	;volatile
  2065     0FFF                     l236:
  2066     0FFF  0008               	return
  2067     1000                     __end_of_applyPWMDutyCycle:
  2068                           
  2069                           	psect	text8
  2070     0BE5                     __ptext8:	
  2071 ;; *************** function _pwmMaxDuty *****************
  2072 ;; Defined at:
  2073 ;;		line 25 in file "PWM.c"
  2074 ;; Parameters:    Size  Location     Type
  2075 ;;  freq            4   13[BANK0 ] const unsigned long 
  2076 ;; Auto vars:     Size  Location     Type
  2077 ;;		None
  2078 ;; Return value:  Size  Location     Type
  2079 ;;                  4   13[BANK0 ] unsigned long 
  2080 ;; Registers used:
  2081 ;;		wreg, status,2, status,0, pclath, cstack
  2082 ;; Tracked objects:
  2083 ;;		On entry : 0/0
  2084 ;;		On exit  : 0/0
  2085 ;;		Unchanged: 0/0
  2086 ;; Data sizes:     COMMON   BANK0   BANK1   BANK3   BANK2
  2087 ;;      Params:         0       4       0       0       0
  2088 ;;      Locals:         0       0       0       0       0
  2089 ;;      Temps:          4       0       0       0       0
  2090 ;;      Totals:         4       4       0       0       0
  2091 ;;Total ram usage:        8 bytes
  2092 ;; Hardware stack levels used: 1
  2093 ;; Hardware stack levels required when called: 2
  2094 ;; This function calls:
  2095 ;;		___lldiv
  2096 ;; This function is called by:
  2097 ;;		_applyPWMDutyCycle
  2098 ;; This function uses a non-reentrant model
  2099 ;;
  2100                           
  2101     0BE5                     _pwmMaxDuty:	
  2102                           ;psect for function _pwmMaxDuty
  2103                           
  2104     0BE5                     l2128:	
  2105                           ;incstack = 0
  2106                           ; Regs used in _pwmMaxDuty: [wreg+status,2+status,0+pclath+cstack]
  2107                           
  2108                           
  2109                           ;PWM.c: 25: uint32_t pwmMaxDuty(const uint32_t freq);PWM.c: 26: {;PWM.c: 27:   return(80
      +                          00000/(freq*4));
  2110     0BE5  1283               	bcf	3,5	;RP0=0, select bank0
  2111     0BE6  1303               	bcf	3,6	;RP1=0, select bank0
  2112     0BE7  082D               	movf	pwmMaxDuty@freq,w
  2113     0BE8  00F5               	movwf	??_pwmMaxDuty
  2114     0BE9  082E               	movf	pwmMaxDuty@freq+1,w
  2115     0BEA  00F6               	movwf	??_pwmMaxDuty+1
  2116     0BEB  082F               	movf	pwmMaxDuty@freq+2,w
  2117     0BEC  00F7               	movwf	??_pwmMaxDuty+2
  2118     0BED  0830               	movf	pwmMaxDuty@freq+3,w
  2119     0BEE  00F8               	movwf	??_pwmMaxDuty+3
  2120     0BEF  3002               	movlw	2
  2121     0BF0                     u2955:
  2122     0BF0  1003               	clrc
  2123     0BF1  0DF5               	rlf	??_pwmMaxDuty,f
  2124     0BF2  0DF6               	rlf	??_pwmMaxDuty+1,f
  2125     0BF3  0DF7               	rlf	??_pwmMaxDuty+2,f
  2126     0BF4  0DF8               	rlf	??_pwmMaxDuty+3,f
  2127     0BF5                     u2950:
  2128     0BF5  3EFF               	addlw	-1
  2129     0BF6  1D03               	skipz
  2130     0BF7  2BF0               	goto	u2955
  2131     0BF8  0878               	movf	??_pwmMaxDuty+3,w
  2132     0BF9  00A3               	movwf	___lldiv@divisor+3
  2133     0BFA  0877               	movf	??_pwmMaxDuty+2,w
  2134     0BFB  00A2               	movwf	___lldiv@divisor+2
  2135     0BFC  0876               	movf	??_pwmMaxDuty+1,w
  2136     0BFD  00A1               	movwf	___lldiv@divisor+1
  2137     0BFE  0875               	movf	??_pwmMaxDuty,w
  2138     0BFF  00A0               	movwf	___lldiv@divisor
  2139     0C00  3000               	movlw	0
  2140     0C01  00A7               	movwf	___lldiv@dividend+3
  2141     0C02  307A               	movlw	122
  2142     0C03  00A6               	movwf	___lldiv@dividend+2
  2143     0C04  3012               	movlw	18
  2144     0C05  00A5               	movwf	___lldiv@dividend+1
  2145     0C06  3000               	movlw	0
  2146     0C07  00A4               	movwf	___lldiv@dividend
  2147     0C08  120A  158A  2503  120A  158A  	fcall	___lldiv
  2148     0C0D  1283               	bcf	3,5	;RP0=0, select bank0
  2149     0C0E  1303               	bcf	3,6	;RP1=0, select bank0
  2150     0C0F  0823               	movf	?___lldiv+3,w
  2151     0C10  00B0               	movwf	?_pwmMaxDuty+3
  2152     0C11  0822               	movf	?___lldiv+2,w
  2153     0C12  00AF               	movwf	?_pwmMaxDuty+2
  2154     0C13  0821               	movf	?___lldiv+1,w
  2155     0C14  00AE               	movwf	?_pwmMaxDuty+1
  2156     0C15  0820               	movf	?___lldiv,w
  2157     0C16  00AD               	movwf	?_pwmMaxDuty
  2158     0C17                     l229:
  2159     0C17  0008               	return
  2160     0C18                     __end_of_pwmMaxDuty:
  2161                           
  2162                           	psect	text9
  2163     0D03                     __ptext9:	
  2164 ;; *************** function ___lldiv *****************
  2165 ;; Defined at:
  2166 ;;		line 5 in file "C:\Program Files\Microchip\xc8\v2.40\pic\sources\c90\common\__lldiv.c"
  2167 ;; Parameters:    Size  Location     Type
  2168 ;;  divisor         4    0[BANK0 ] unsigned long 
  2169 ;;  dividend        4    4[BANK0 ] unsigned long 
  2170 ;; Auto vars:     Size  Location     Type
  2171 ;;  quotient        4    8[BANK0 ] unsigned long 
  2172 ;;  counter         1   12[BANK0 ] unsigned char 
  2173 ;; Return value:  Size  Location     Type
  2174 ;;                  4    0[BANK0 ] unsigned long 
  2175 ;; Registers used:
  2176 ;;		wreg, status,2, status,0
  2177 ;; Tracked objects:
  2178 ;;		On entry : 0/0
  2179 ;;		On exit  : 0/0
  2180 ;;		Unchanged: 0/0
  2181 ;; Data sizes:     COMMON   BANK0   BANK1   BANK3   BANK2
  2182 ;;      Params:         0       8       0       0       0
  2183 ;;      Locals:         0       5       0       0       0
  2184 ;;      Temps:          1       0       0       0       0
  2185 ;;      Totals:         1      13       0       0       0
  2186 ;;Total ram usage:       14 bytes
  2187 ;; Hardware stack levels used: 1
  2188 ;; Hardware stack levels required when called: 1
  2189 ;; This function calls:
  2190 ;;		Nothing
  2191 ;; This function is called by:
  2192 ;;		_pwmMaxDuty
  2193 ;;		_initPwm
  2194 ;;		_I2C_Master_Init
  2195 ;; This function uses a non-reentrant model
  2196 ;;
  2197                           
  2198     0D03                     ___lldiv:	
  2199                           ;psect for function ___lldiv
  2200                           
  2201     0D03                     l2104:	
  2202                           ;incstack = 0
  2203                           ; Regs used in ___lldiv: [wreg+status,2+status,0]
  2204                           
  2205     0D03  3000               	movlw	0
  2206     0D04  1283               	bcf	3,5	;RP0=0, select bank0
  2207     0D05  1303               	bcf	3,6	;RP1=0, select bank0
  2208     0D06  00AB               	movwf	___lldiv@quotient+3
  2209     0D07  3000               	movlw	0
  2210     0D08  00AA               	movwf	___lldiv@quotient+2
  2211     0D09  3000               	movlw	0
  2212     0D0A  00A9               	movwf	___lldiv@quotient+1
  2213     0D0B  3000               	movlw	0
  2214     0D0C  00A8               	movwf	___lldiv@quotient
  2215     0D0D  0823               	movf	___lldiv@divisor+3,w
  2216     0D0E  0422               	iorwf	___lldiv@divisor+2,w
  2217     0D0F  0421               	iorwf	___lldiv@divisor+1,w
  2218     0D10  0420               	iorwf	___lldiv@divisor,w
  2219     0D11  1903               	skipnz
  2220     0D12  2D14               	goto	u2881
  2221     0D13  2D15               	goto	u2880
  2222     0D14                     u2881:
  2223     0D14  2D62               	goto	l2124
  2224     0D15                     u2880:
  2225     0D15                     l2106:
  2226     0D15  01AC               	clrf	___lldiv@counter
  2227     0D16  0AAC               	incf	___lldiv@counter,f
  2228     0D17  2D25               	goto	l2110
  2229     0D18                     l2108:
  2230     0D18  3001               	movlw	1
  2231     0D19  00F4               	movwf	??___lldiv
  2232     0D1A                     u2895:
  2233     0D1A  1003               	clrc
  2234     0D1B  0DA0               	rlf	___lldiv@divisor,f
  2235     0D1C  0DA1               	rlf	___lldiv@divisor+1,f
  2236     0D1D  0DA2               	rlf	___lldiv@divisor+2,f
  2237     0D1E  0DA3               	rlf	___lldiv@divisor+3,f
  2238     0D1F  0BF4               	decfsz	??___lldiv,f
  2239     0D20  2D1A               	goto	u2895
  2240     0D21  3001               	movlw	1
  2241     0D22  00F4               	movwf	??___lldiv
  2242     0D23  0874               	movf	??___lldiv,w
  2243     0D24  07AC               	addwf	___lldiv@counter,f
  2244     0D25                     l2110:
  2245     0D25  1FA3               	btfss	___lldiv@divisor+3,7
  2246     0D26  2D28               	goto	u2901
  2247     0D27  2D29               	goto	u2900
  2248     0D28                     u2901:
  2249     0D28  2D18               	goto	l2108
  2250     0D29                     u2900:
  2251     0D29                     l2112:
  2252     0D29  3001               	movlw	1
  2253     0D2A  00F4               	movwf	??___lldiv
  2254     0D2B                     u2915:
  2255     0D2B  1003               	clrc
  2256     0D2C  0DA8               	rlf	___lldiv@quotient,f
  2257     0D2D  0DA9               	rlf	___lldiv@quotient+1,f
  2258     0D2E  0DAA               	rlf	___lldiv@quotient+2,f
  2259     0D2F  0DAB               	rlf	___lldiv@quotient+3,f
  2260     0D30  0BF4               	decfsz	??___lldiv,f
  2261     0D31  2D2B               	goto	u2915
  2262     0D32                     l2114:
  2263     0D32  0823               	movf	___lldiv@divisor+3,w
  2264     0D33  0227               	subwf	___lldiv@dividend+3,w
  2265     0D34  1D03               	skipz
  2266     0D35  2D40               	goto	u2925
  2267     0D36  0822               	movf	___lldiv@divisor+2,w
  2268     0D37  0226               	subwf	___lldiv@dividend+2,w
  2269     0D38  1D03               	skipz
  2270     0D39  2D40               	goto	u2925
  2271     0D3A  0821               	movf	___lldiv@divisor+1,w
  2272     0D3B  0225               	subwf	___lldiv@dividend+1,w
  2273     0D3C  1D03               	skipz
  2274     0D3D  2D40               	goto	u2925
  2275     0D3E  0820               	movf	___lldiv@divisor,w
  2276     0D3F  0224               	subwf	___lldiv@dividend,w
  2277     0D40                     u2925:
  2278     0D40  1C03               	skipc
  2279     0D41  2D43               	goto	u2921
  2280     0D42  2D44               	goto	u2920
  2281     0D43                     u2921:
  2282     0D43  2D53               	goto	l2120
  2283     0D44                     u2920:
  2284     0D44                     l2116:
  2285     0D44  0820               	movf	___lldiv@divisor,w
  2286     0D45  02A4               	subwf	___lldiv@dividend,f
  2287     0D46  0821               	movf	___lldiv@divisor+1,w
  2288     0D47  1C03               	skipc
  2289     0D48  0F21               	incfsz	___lldiv@divisor+1,w
  2290     0D49  02A5               	subwf	___lldiv@dividend+1,f
  2291     0D4A  0822               	movf	___lldiv@divisor+2,w
  2292     0D4B  1C03               	skipc
  2293     0D4C  0F22               	incfsz	___lldiv@divisor+2,w
  2294     0D4D  02A6               	subwf	___lldiv@dividend+2,f
  2295     0D4E  0823               	movf	___lldiv@divisor+3,w
  2296     0D4F  1C03               	skipc
  2297     0D50  0F23               	incfsz	___lldiv@divisor+3,w
  2298     0D51  02A7               	subwf	___lldiv@dividend+3,f
  2299     0D52                     l2118:
  2300     0D52  1428               	bsf	___lldiv@quotient,0
  2301     0D53                     l2120:
  2302     0D53  3001               	movlw	1
  2303     0D54                     u2935:
  2304     0D54  1003               	clrc
  2305     0D55  0CA3               	rrf	___lldiv@divisor+3,f
  2306     0D56  0CA2               	rrf	___lldiv@divisor+2,f
  2307     0D57  0CA1               	rrf	___lldiv@divisor+1,f
  2308     0D58  0CA0               	rrf	___lldiv@divisor,f
  2309     0D59  3EFF               	addlw	-1
  2310     0D5A  1D03               	skipz
  2311     0D5B  2D54               	goto	u2935
  2312     0D5C                     l2122:
  2313     0D5C  3001               	movlw	1
  2314     0D5D  02AC               	subwf	___lldiv@counter,f
  2315     0D5E  1D03               	btfss	3,2
  2316     0D5F  2D61               	goto	u2941
  2317     0D60  2D62               	goto	u2940
  2318     0D61                     u2941:
  2319     0D61  2D29               	goto	l2112
  2320     0D62                     u2940:
  2321     0D62                     l2124:
  2322     0D62  082B               	movf	___lldiv@quotient+3,w
  2323     0D63  00A3               	movwf	?___lldiv+3
  2324     0D64  082A               	movf	___lldiv@quotient+2,w
  2325     0D65  00A2               	movwf	?___lldiv+2
  2326     0D66  0829               	movf	___lldiv@quotient+1,w
  2327     0D67  00A1               	movwf	?___lldiv+1
  2328     0D68  0828               	movf	___lldiv@quotient,w
  2329     0D69  00A0               	movwf	?___lldiv
  2330     0D6A                     l358:
  2331     0D6A  0008               	return
  2332     0D6B                     __end_of___lldiv:
  2333                           
  2334                           	psect	text10
  2335     0E88                     __ptext10:	
  2336 ;; *************** function ___xxtofl *****************
  2337 ;; Defined at:
  2338 ;;		line 10 in file "C:\Program Files\Microchip\xc8\v2.40\pic\sources\c90\common\xxtofl.c"
  2339 ;; Parameters:    Size  Location     Type
  2340 ;;  sign            1    wreg     unsigned char 
  2341 ;;  val             4   17[BANK0 ] long 
  2342 ;; Auto vars:     Size  Location     Type
  2343 ;;  sign            1   25[BANK0 ] unsigned char 
  2344 ;;  arg             4   27[BANK0 ] unsigned long 
  2345 ;;  exp             1   26[BANK0 ] unsigned char 
  2346 ;; Return value:  Size  Location     Type
  2347 ;;                  4   17[BANK0 ] unsigned char 
  2348 ;; Registers used:
  2349 ;;		wreg, status,2, status,0
  2350 ;; Tracked objects:
  2351 ;;		On entry : 0/0
  2352 ;;		On exit  : 0/0
  2353 ;;		Unchanged: 0/0
  2354 ;; Data sizes:     COMMON   BANK0   BANK1   BANK3   BANK2
  2355 ;;      Params:         0       4       0       0       0
  2356 ;;      Locals:         0       6       0       0       0
  2357 ;;      Temps:          0       4       0       0       0
  2358 ;;      Totals:         0      14       0       0       0
  2359 ;;Total ram usage:       14 bytes
  2360 ;; Hardware stack levels used: 1
  2361 ;; Hardware stack levels required when called: 1
  2362 ;; This function calls:
  2363 ;;		Nothing
  2364 ;; This function is called by:
  2365 ;;		_applyPWMDutyCycle
  2366 ;; This function uses a non-reentrant model
  2367 ;;
  2368                           
  2369     0E88                     ___xxtofl:	
  2370                           ;psect for function ___xxtofl
  2371                           
  2372                           
  2373                           ;incstack = 0
  2374                           ; Regs used in ___xxtofl: [wreg+status,2+status,0]
  2375                           ;___xxtofl@sign stored from wreg
  2376     0E88  1283               	bcf	3,5	;RP0=0, select bank0
  2377     0E89  1303               	bcf	3,6	;RP1=0, select bank0
  2378     0E8A  00B9               	movwf	___xxtofl@sign
  2379     0E8B                     l1856:
  2380     0E8B  0839               	movf	___xxtofl@sign,w
  2381     0E8C  1903               	btfsc	3,2
  2382     0E8D  2E8F               	goto	u2331
  2383     0E8E  2E90               	goto	u2330
  2384     0E8F                     u2331:
  2385     0E8F  2EA4               	goto	l1862
  2386     0E90                     u2330:
  2387     0E90                     l1858:
  2388     0E90  1FB4               	btfss	___xxtofl@val+3,7
  2389     0E91  2E93               	goto	u2341
  2390     0E92  2E94               	goto	u2340
  2391     0E93                     u2341:
  2392     0E93  2EA4               	goto	l1862
  2393     0E94                     u2340:
  2394     0E94                     l1860:
  2395     0E94  0931               	comf	___xxtofl@val,w
  2396     0E95  00BB               	movwf	___xxtofl@arg
  2397     0E96  0932               	comf	___xxtofl@val+1,w
  2398     0E97  00BC               	movwf	___xxtofl@arg+1
  2399     0E98  0933               	comf	___xxtofl@val+2,w
  2400     0E99  00BD               	movwf	___xxtofl@arg+2
  2401     0E9A  0934               	comf	___xxtofl@val+3,w
  2402     0E9B  00BE               	movwf	___xxtofl@arg+3
  2403     0E9C  0ABB               	incf	___xxtofl@arg,f
  2404     0E9D  1903               	skipnz
  2405     0E9E  0ABC               	incf	___xxtofl@arg+1,f
  2406     0E9F  1903               	skipnz
  2407     0EA0  0ABD               	incf	___xxtofl@arg+2,f
  2408     0EA1  1903               	skipnz
  2409     0EA2  0ABE               	incf	___xxtofl@arg+3,f
  2410     0EA3  2EAC               	goto	l755
  2411     0EA4                     l1862:
  2412     0EA4  0834               	movf	___xxtofl@val+3,w
  2413     0EA5  00BE               	movwf	___xxtofl@arg+3
  2414     0EA6  0833               	movf	___xxtofl@val+2,w
  2415     0EA7  00BD               	movwf	___xxtofl@arg+2
  2416     0EA8  0832               	movf	___xxtofl@val+1,w
  2417     0EA9  00BC               	movwf	___xxtofl@arg+1
  2418     0EAA  0831               	movf	___xxtofl@val,w
  2419     0EAB  00BB               	movwf	___xxtofl@arg
  2420     0EAC                     l755:
  2421     0EAC  0834               	movf	___xxtofl@val+3,w
  2422     0EAD  0433               	iorwf	___xxtofl@val+2,w
  2423     0EAE  0432               	iorwf	___xxtofl@val+1,w
  2424     0EAF  0431               	iorwf	___xxtofl@val,w
  2425     0EB0  1D03               	skipz
  2426     0EB1  2EB3               	goto	u2351
  2427     0EB2  2EB4               	goto	u2350
  2428     0EB3                     u2351:
  2429     0EB3  2EBD               	goto	l1868
  2430     0EB4                     u2350:
  2431     0EB4                     l1864:
  2432     0EB4  3000               	movlw	0
  2433     0EB5  00B4               	movwf	?___xxtofl+3
  2434     0EB6  3000               	movlw	0
  2435     0EB7  00B3               	movwf	?___xxtofl+2
  2436     0EB8  3000               	movlw	0
  2437     0EB9  00B2               	movwf	?___xxtofl+1
  2438     0EBA  3000               	movlw	0
  2439     0EBB  00B1               	movwf	?___xxtofl
  2440     0EBC  2F41               	goto	l757
  2441     0EBD                     l1868:
  2442     0EBD  3096               	movlw	150
  2443     0EBE  00BA               	movwf	___xxtofl@exp
  2444     0EBF  2ECD               	goto	l1872
  2445     0EC0                     l1870:
  2446     0EC0  3001               	movlw	1
  2447     0EC1  00B5               	movwf	??___xxtofl
  2448     0EC2  0835               	movf	??___xxtofl,w
  2449     0EC3  07BA               	addwf	___xxtofl@exp,f
  2450     0EC4  3001               	movlw	1
  2451     0EC5                     u2365:
  2452     0EC5  1003               	clrc
  2453     0EC6  0CBE               	rrf	___xxtofl@arg+3,f
  2454     0EC7  0CBD               	rrf	___xxtofl@arg+2,f
  2455     0EC8  0CBC               	rrf	___xxtofl@arg+1,f
  2456     0EC9  0CBB               	rrf	___xxtofl@arg,f
  2457     0ECA  3EFF               	addlw	-1
  2458     0ECB  1D03               	skipz
  2459     0ECC  2EC5               	goto	u2365
  2460     0ECD                     l1872:
  2461     0ECD  30FE               	movlw	254
  2462     0ECE  053E               	andwf	___xxtofl@arg+3,w
  2463     0ECF  1D03               	btfss	3,2
  2464     0ED0  2ED2               	goto	u2371
  2465     0ED1  2ED3               	goto	u2370
  2466     0ED2                     u2371:
  2467     0ED2  2EC0               	goto	l1870
  2468     0ED3                     u2370:
  2469     0ED3  2EEF               	goto	l761
  2470     0ED4                     l1874:
  2471     0ED4  3001               	movlw	1
  2472     0ED5  00B5               	movwf	??___xxtofl
  2473     0ED6  0835               	movf	??___xxtofl,w
  2474     0ED7  07BA               	addwf	___xxtofl@exp,f
  2475     0ED8                     l1876:
  2476     0ED8  3001               	movlw	1
  2477     0ED9  07BB               	addwf	___xxtofl@arg,f
  2478     0EDA  3000               	movlw	0
  2479     0EDB  1803               	skipnc
  2480     0EDC  3001               	movlw	1
  2481     0EDD  07BC               	addwf	___xxtofl@arg+1,f
  2482     0EDE  3000               	movlw	0
  2483     0EDF  1803               	skipnc
  2484     0EE0  3001               	movlw	1
  2485     0EE1  07BD               	addwf	___xxtofl@arg+2,f
  2486     0EE2  3000               	movlw	0
  2487     0EE3  1803               	skipnc
  2488     0EE4  3001               	movlw	1
  2489     0EE5  07BE               	addwf	___xxtofl@arg+3,f
  2490     0EE6                     l1878:
  2491     0EE6  3001               	movlw	1
  2492     0EE7                     u2385:
  2493     0EE7  1003               	clrc
  2494     0EE8  0CBE               	rrf	___xxtofl@arg+3,f
  2495     0EE9  0CBD               	rrf	___xxtofl@arg+2,f
  2496     0EEA  0CBC               	rrf	___xxtofl@arg+1,f
  2497     0EEB  0CBB               	rrf	___xxtofl@arg,f
  2498     0EEC  3EFF               	addlw	-1
  2499     0EED  1D03               	skipz
  2500     0EEE  2EE7               	goto	u2385
  2501     0EEF                     l761:
  2502     0EEF  30FF               	movlw	255
  2503     0EF0  053E               	andwf	___xxtofl@arg+3,w
  2504     0EF1  1D03               	btfss	3,2
  2505     0EF2  2EF4               	goto	u2391
  2506     0EF3  2EF5               	goto	u2390
  2507     0EF4                     u2391:
  2508     0EF4  2ED4               	goto	l1874
  2509     0EF5                     u2390:
  2510     0EF5  2F01               	goto	l1882
  2511     0EF6                     l1880:
  2512     0EF6  3001               	movlw	1
  2513     0EF7  02BA               	subwf	___xxtofl@exp,f
  2514     0EF8  3001               	movlw	1
  2515     0EF9  00B5               	movwf	??___xxtofl
  2516     0EFA                     u2405:
  2517     0EFA  1003               	clrc
  2518     0EFB  0DBB               	rlf	___xxtofl@arg,f
  2519     0EFC  0DBC               	rlf	___xxtofl@arg+1,f
  2520     0EFD  0DBD               	rlf	___xxtofl@arg+2,f
  2521     0EFE  0DBE               	rlf	___xxtofl@arg+3,f
  2522     0EFF  0BB5               	decfsz	??___xxtofl,f
  2523     0F00  2EFA               	goto	u2405
  2524     0F01                     l1882:
  2525     0F01  1BBD               	btfsc	___xxtofl@arg+2,7
  2526     0F02  2F04               	goto	u2411
  2527     0F03  2F05               	goto	u2410
  2528     0F04                     u2411:
  2529     0F04  2F0B               	goto	l768
  2530     0F05                     u2410:
  2531     0F05                     l1884:
  2532     0F05  3002               	movlw	2
  2533     0F06  023A               	subwf	___xxtofl@exp,w
  2534     0F07  1803               	skipnc
  2535     0F08  2F0A               	goto	u2421
  2536     0F09  2F0B               	goto	u2420
  2537     0F0A                     u2421:
  2538     0F0A  2EF6               	goto	l1880
  2539     0F0B                     u2420:
  2540     0F0B                     l768:
  2541     0F0B  183A               	btfsc	___xxtofl@exp,0
  2542     0F0C  2F0E               	goto	u2431
  2543     0F0D  2F0F               	goto	u2430
  2544     0F0E                     u2431:
  2545     0F0E  2F17               	goto	l769
  2546     0F0F                     u2430:
  2547     0F0F                     l1886:
  2548     0F0F  30FF               	movlw	255
  2549     0F10  05BB               	andwf	___xxtofl@arg,f
  2550     0F11  30FF               	movlw	255
  2551     0F12  05BC               	andwf	___xxtofl@arg+1,f
  2552     0F13  307F               	movlw	127
  2553     0F14  05BD               	andwf	___xxtofl@arg+2,f
  2554     0F15  30FF               	movlw	255
  2555     0F16  05BE               	andwf	___xxtofl@arg+3,f
  2556     0F17                     l769:
  2557     0F17  1003               	clrc
  2558     0F18  0CBA               	rrf	___xxtofl@exp,f
  2559     0F19                     l1888:
  2560     0F19  083A               	movf	___xxtofl@exp,w
  2561     0F1A  00B5               	movwf	??___xxtofl
  2562     0F1B  01B6               	clrf	??___xxtofl+1
  2563     0F1C  01B7               	clrf	??___xxtofl+2
  2564     0F1D  01B8               	clrf	??___xxtofl+3
  2565     0F1E  3018               	movlw	24
  2566     0F1F                     u2445:
  2567     0F1F  1003               	clrc
  2568     0F20  0DB5               	rlf	??___xxtofl,f
  2569     0F21  0DB6               	rlf	??___xxtofl+1,f
  2570     0F22  0DB7               	rlf	??___xxtofl+2,f
  2571     0F23  0DB8               	rlf	??___xxtofl+3,f
  2572     0F24                     u2440:
  2573     0F24  3EFF               	addlw	-1
  2574     0F25  1D03               	skipz
  2575     0F26  2F1F               	goto	u2445
  2576     0F27  0835               	movf	??___xxtofl,w
  2577     0F28  04BB               	iorwf	___xxtofl@arg,f
  2578     0F29  0836               	movf	??___xxtofl+1,w
  2579     0F2A  04BC               	iorwf	___xxtofl@arg+1,f
  2580     0F2B  0837               	movf	??___xxtofl+2,w
  2581     0F2C  04BD               	iorwf	___xxtofl@arg+2,f
  2582     0F2D  0838               	movf	??___xxtofl+3,w
  2583     0F2E  04BE               	iorwf	___xxtofl@arg+3,f
  2584     0F2F                     l1890:
  2585     0F2F  0839               	movf	___xxtofl@sign,w
  2586     0F30  1903               	btfsc	3,2
  2587     0F31  2F33               	goto	u2451
  2588     0F32  2F34               	goto	u2450
  2589     0F33                     u2451:
  2590     0F33  2F39               	goto	l1896
  2591     0F34                     u2450:
  2592     0F34                     l1892:
  2593     0F34  1FB4               	btfss	___xxtofl@val+3,7
  2594     0F35  2F37               	goto	u2461
  2595     0F36  2F38               	goto	u2460
  2596     0F37                     u2461:
  2597     0F37  2F39               	goto	l1896
  2598     0F38                     u2460:
  2599     0F38                     l1894:
  2600     0F38  17BE               	bsf	___xxtofl@arg+3,7
  2601     0F39                     l1896:
  2602     0F39  083E               	movf	___xxtofl@arg+3,w
  2603     0F3A  00B4               	movwf	?___xxtofl+3
  2604     0F3B  083D               	movf	___xxtofl@arg+2,w
  2605     0F3C  00B3               	movwf	?___xxtofl+2
  2606     0F3D  083C               	movf	___xxtofl@arg+1,w
  2607     0F3E  00B2               	movwf	?___xxtofl+1
  2608     0F3F  083B               	movf	___xxtofl@arg,w
  2609     0F40  00B1               	movwf	?___xxtofl
  2610     0F41                     l757:
  2611     0F41  0008               	return
  2612     0F42                     __end_of___xxtofl:
  2613                           
  2614                           	psect	text11
  2615     0D6B                     __ptext11:	
  2616 ;; *************** function ___fltol *****************
  2617 ;; Defined at:
  2618 ;;		line 43 in file "C:\Program Files\Microchip\xc8\v2.40\pic\sources\c90\common\fltol.c"
  2619 ;; Parameters:    Size  Location     Type
  2620 ;;  f1              4   70[BANK0 ] unsigned char 
  2621 ;; Auto vars:     Size  Location     Type
  2622 ;;  exp1            1   14[BANK1 ] unsigned char 
  2623 ;;  sign1           1   13[BANK1 ] unsigned char 
  2624 ;; Return value:  Size  Location     Type
  2625 ;;                  4   70[BANK0 ] long 
  2626 ;; Registers used:
  2627 ;;		wreg, status,2, status,0
  2628 ;; Tracked objects:
  2629 ;;		On entry : 0/0
  2630 ;;		On exit  : 0/0
  2631 ;;		Unchanged: 0/0
  2632 ;; Data sizes:     COMMON   BANK0   BANK1   BANK3   BANK2
  2633 ;;      Params:         0       4       0       0       0
  2634 ;;      Locals:         0       0       2       0       0
  2635 ;;      Temps:          0       4       0       0       0
  2636 ;;      Totals:         0       8       2       0       0
  2637 ;;Total ram usage:       10 bytes
  2638 ;; Hardware stack levels used: 1
  2639 ;; Hardware stack levels required when called: 1
  2640 ;; This function calls:
  2641 ;;		Nothing
  2642 ;; This function is called by:
  2643 ;;		_applyPWMDutyCycle
  2644 ;; This function uses a non-reentrant model
  2645 ;;
  2646                           
  2647     0D6B                     ___fltol:	
  2648                           ;psect for function ___fltol
  2649                           
  2650     0D6B                     l2132:	
  2651                           ;incstack = 0
  2652                           ; Regs used in ___fltol: [wreg+status,2+status,0]
  2653                           
  2654     0D6B  1003               	clrc
  2655     0D6C  1283               	bcf	3,5	;RP0=0, select bank0
  2656     0D6D  1303               	bcf	3,6	;RP1=0, select bank0
  2657     0D6E  0D68               	rlf	___fltol@f1+2,w
  2658     0D6F  0D69               	rlf	___fltol@f1+3,w
  2659     0D70  1683               	bsf	3,5	;RP0=1, select bank1
  2660     0D71  1303               	bcf	3,6	;RP1=0, select bank1
  2661     0D72  00AE               	movwf	___fltol@exp1^(0+128)
  2662     0D73  082E               	movf	___fltol@exp1^(0+128),w
  2663     0D74  1D03               	btfss	3,2
  2664     0D75  2D77               	goto	u2961
  2665     0D76  2D78               	goto	u2960
  2666     0D77                     u2961:
  2667     0D77  2D83               	goto	l2138
  2668     0D78                     u2960:
  2669     0D78                     l2134:
  2670     0D78  3000               	movlw	0
  2671     0D79  1283               	bcf	3,5	;RP0=0, select bank0
  2672     0D7A  1303               	bcf	3,6	;RP1=0, select bank0
  2673     0D7B  00E9               	movwf	?___fltol+3
  2674     0D7C  3000               	movlw	0
  2675     0D7D  00E8               	movwf	?___fltol+2
  2676     0D7E  3000               	movlw	0
  2677     0D7F  00E7               	movwf	?___fltol+1
  2678     0D80  3000               	movlw	0
  2679     0D81  00E6               	movwf	?___fltol
  2680     0D82  2DF8               	goto	l508
  2681     0D83                     l2138:
  2682     0D83  1283               	bcf	3,5	;RP0=0, select bank0
  2683     0D84  1303               	bcf	3,6	;RP1=0, select bank0
  2684     0D85  0866               	movf	___fltol@f1,w
  2685     0D86  00EA               	movwf	??___fltol
  2686     0D87  0867               	movf	___fltol@f1+1,w
  2687     0D88  00EB               	movwf	??___fltol+1
  2688     0D89  0868               	movf	___fltol@f1+2,w
  2689     0D8A  00EC               	movwf	??___fltol+2
  2690     0D8B  0869               	movf	___fltol@f1+3,w
  2691     0D8C  00ED               	movwf	??___fltol+3
  2692     0D8D  301F               	movlw	31
  2693     0D8E                     u2975:
  2694     0D8E  1003               	clrc
  2695     0D8F  0CED               	rrf	??___fltol+3,f
  2696     0D90  0CEC               	rrf	??___fltol+2,f
  2697     0D91  0CEB               	rrf	??___fltol+1,f
  2698     0D92  0CEA               	rrf	??___fltol,f
  2699     0D93                     u2970:
  2700     0D93  3EFF               	addlw	-1
  2701     0D94  1D03               	skipz
  2702     0D95  2D8E               	goto	u2975
  2703     0D96  086A               	movf	??___fltol,w
  2704     0D97  1683               	bsf	3,5	;RP0=1, select bank1
  2705     0D98  1303               	bcf	3,6	;RP1=0, select bank1
  2706     0D99  00AD               	movwf	___fltol@sign1^(0+128)
  2707     0D9A                     l2140:
  2708     0D9A  1283               	bcf	3,5	;RP0=0, select bank0
  2709     0D9B  1303               	bcf	3,6	;RP1=0, select bank0
  2710     0D9C  17E8               	bsf	___fltol@f1+2,7
  2711     0D9D                     l2142:
  2712     0D9D  30FF               	movlw	255
  2713     0D9E  05E6               	andwf	___fltol@f1,f
  2714     0D9F  30FF               	movlw	255
  2715     0DA0  05E7               	andwf	___fltol@f1+1,f
  2716     0DA1  30FF               	movlw	255
  2717     0DA2  05E8               	andwf	___fltol@f1+2,f
  2718     0DA3  3000               	movlw	0
  2719     0DA4  05E9               	andwf	___fltol@f1+3,f
  2720     0DA5                     l2144:
  2721     0DA5  3096               	movlw	150
  2722     0DA6  1683               	bsf	3,5	;RP0=1, select bank1
  2723     0DA7  1303               	bcf	3,6	;RP1=0, select bank1
  2724     0DA8  02AE               	subwf	___fltol@exp1^(0+128),f
  2725     0DA9                     l2146:
  2726     0DA9  1FAE               	btfss	___fltol@exp1^(0+128),7
  2727     0DAA  2DAC               	goto	u2981
  2728     0DAB  2DAD               	goto	u2980
  2729     0DAC                     u2981:
  2730     0DAC  2DCB               	goto	l2156
  2731     0DAD                     u2980:
  2732     0DAD                     l2148:
  2733     0DAD  082E               	movf	___fltol@exp1^(0+128),w
  2734     0DAE  3A80               	xorlw	128
  2735     0DAF  3E97               	addlw	151
  2736     0DB0  1803               	skipnc
  2737     0DB1  2DB3               	goto	u2991
  2738     0DB2  2DB4               	goto	u2990
  2739     0DB3                     u2991:
  2740     0DB3  2DB5               	goto	l2154
  2741     0DB4                     u2990:
  2742     0DB4  2D78               	goto	l2134
  2743     0DB5                     l2154:
  2744     0DB5  3001               	movlw	1
  2745     0DB6                     u3005:
  2746     0DB6  1003               	clrc
  2747     0DB7  1283               	bcf	3,5	;RP0=0, select bank0
  2748     0DB8  1303               	bcf	3,6	;RP1=0, select bank0
  2749     0DB9  0CE9               	rrf	___fltol@f1+3,f
  2750     0DBA  0CE8               	rrf	___fltol@f1+2,f
  2751     0DBB  0CE7               	rrf	___fltol@f1+1,f
  2752     0DBC  0CE6               	rrf	___fltol@f1,f
  2753     0DBD  3EFF               	addlw	-1
  2754     0DBE  1D03               	skipz
  2755     0DBF  2DB6               	goto	u3005
  2756     0DC0  3001               	movlw	1
  2757     0DC1  00EA               	movwf	??___fltol
  2758     0DC2  086A               	movf	??___fltol,w
  2759     0DC3  1683               	bsf	3,5	;RP0=1, select bank1
  2760     0DC4  1303               	bcf	3,6	;RP1=0, select bank1
  2761     0DC5  07AE               	addwf	___fltol@exp1^(0+128),f
  2762     0DC6  1D03               	btfss	3,2
  2763     0DC7  2DC9               	goto	u3011
  2764     0DC8  2DCA               	goto	u3010
  2765     0DC9                     u3011:
  2766     0DC9  2DB5               	goto	l2154
  2767     0DCA                     u3010:
  2768     0DCA  2DE6               	goto	l2164
  2769     0DCB                     l2156:
  2770     0DCB  3020               	movlw	32
  2771     0DCC  022E               	subwf	___fltol@exp1^(0+128),w
  2772     0DCD  1C03               	skipc
  2773     0DCE  2DD0               	goto	u3021
  2774     0DCF  2DD1               	goto	u3020
  2775     0DD0                     u3021:
  2776     0DD0  2DE1               	goto	l515
  2777     0DD1                     u3020:
  2778     0DD1  2D78               	goto	l2134
  2779     0DD2                     l2162:
  2780     0DD2  3001               	movlw	1
  2781     0DD3  1283               	bcf	3,5	;RP0=0, select bank0
  2782     0DD4  1303               	bcf	3,6	;RP1=0, select bank0
  2783     0DD5  00EA               	movwf	??___fltol
  2784     0DD6                     u3035:
  2785     0DD6  1003               	clrc
  2786     0DD7  0DE6               	rlf	___fltol@f1,f
  2787     0DD8  0DE7               	rlf	___fltol@f1+1,f
  2788     0DD9  0DE8               	rlf	___fltol@f1+2,f
  2789     0DDA  0DE9               	rlf	___fltol@f1+3,f
  2790     0DDB  0BEA               	decfsz	??___fltol,f
  2791     0DDC  2DD6               	goto	u3035
  2792     0DDD  3001               	movlw	1
  2793     0DDE  1683               	bsf	3,5	;RP0=1, select bank1
  2794     0DDF  1303               	bcf	3,6	;RP1=0, select bank1
  2795     0DE0  02AE               	subwf	___fltol@exp1^(0+128),f
  2796     0DE1                     l515:
  2797     0DE1  082E               	movf	___fltol@exp1^(0+128),w
  2798     0DE2  1D03               	btfss	3,2
  2799     0DE3  2DE5               	goto	u3041
  2800     0DE4  2DE6               	goto	u3040
  2801     0DE5                     u3041:
  2802     0DE5  2DD2               	goto	l2162
  2803     0DE6                     u3040:
  2804     0DE6                     l2164:
  2805     0DE6  082D               	movf	___fltol@sign1^(0+128),w
  2806     0DE7  1903               	btfsc	3,2
  2807     0DE8  2DEA               	goto	u3051
  2808     0DE9  2DEB               	goto	u3050
  2809     0DEA                     u3051:
  2810     0DEA  2DF8               	goto	l518
  2811     0DEB                     u3050:
  2812     0DEB                     l2166:
  2813     0DEB  1283               	bcf	3,5	;RP0=0, select bank0
  2814     0DEC  1303               	bcf	3,6	;RP1=0, select bank0
  2815     0DED  09E6               	comf	___fltol@f1,f
  2816     0DEE  09E7               	comf	___fltol@f1+1,f
  2817     0DEF  09E8               	comf	___fltol@f1+2,f
  2818     0DF0  09E9               	comf	___fltol@f1+3,f
  2819     0DF1  0AE6               	incf	___fltol@f1,f
  2820     0DF2  1903               	skipnz
  2821     0DF3  0AE7               	incf	___fltol@f1+1,f
  2822     0DF4  1903               	skipnz
  2823     0DF5  0AE8               	incf	___fltol@f1+2,f
  2824     0DF6  1903               	skipnz
  2825     0DF7  0AE9               	incf	___fltol@f1+3,f
  2826     0DF8                     l518:
  2827     0DF8                     l508:
  2828     0DF8  0008               	return
  2829     0DF9                     __end_of___fltol:
  2830                           
  2831                           	psect	text12
  2832     001F                     __ptext12:	
  2833 ;; *************** function ___flmul *****************
  2834 ;; Defined at:
  2835 ;;		line 8 in file "C:\Program Files\Microchip\xc8\v2.40\pic\sources\c90\common\sprcmul.c"
  2836 ;; Parameters:    Size  Location     Type
  2837 ;;  b               4   57[BANK0 ] long 
  2838 ;;  a               4   61[BANK0 ] long 
  2839 ;; Auto vars:     Size  Location     Type
  2840 ;;  prod            4    7[BANK1 ] struct .
  2841 ;;  grs             4    1[BANK1 ] unsigned long 
  2842 ;;  temp            2   11[BANK1 ] struct .
  2843 ;;  bexp            1    6[BANK1 ] unsigned char 
  2844 ;;  aexp            1    5[BANK1 ] unsigned char 
  2845 ;;  sign            1    0[BANK1 ] unsigned char 
  2846 ;; Return value:  Size  Location     Type
  2847 ;;                  4   57[BANK0 ] unsigned char 
  2848 ;; Registers used:
  2849 ;;		wreg, status,2, status,0, btemp+1, pclath, cstack
  2850 ;; Tracked objects:
  2851 ;;		On entry : 0/0
  2852 ;;		On exit  : 0/0
  2853 ;;		Unchanged: 0/0
  2854 ;; Data sizes:     COMMON   BANK0   BANK1   BANK3   BANK2
  2855 ;;      Params:         0       8       0       0       0
  2856 ;;      Locals:         0       0      13       0       0
  2857 ;;      Temps:          0       5       0       0       0
  2858 ;;      Totals:         0      13      13       0       0
  2859 ;;Total ram usage:       26 bytes
  2860 ;; Hardware stack levels used: 1
  2861 ;; Hardware stack levels required when called: 2
  2862 ;; This function calls:
  2863 ;;		__Umul8_16
  2864 ;; This function is called by:
  2865 ;;		_applyPWMDutyCycle
  2866 ;; This function uses a non-reentrant model
  2867 ;;
  2868                           
  2869     001F                     ___flmul:	
  2870                           ;psect for function ___flmul
  2871                           
  2872     001F                     l1716:	
  2873                           ;incstack = 0
  2874                           ; Regs used in ___flmul: [wreg+status,2+status,0+btemp+1+pclath+cstack]
  2875                           
  2876     001F  1283               	bcf	3,5	;RP0=0, select bank0
  2877     0020  1303               	bcf	3,6	;RP1=0, select bank0
  2878     0021  085C               	movf	___flmul@b+3,w
  2879     0022  3980               	andlw	128
  2880     0023  1683               	bsf	3,5	;RP0=1, select bank1
  2881     0024  1303               	bcf	3,6	;RP1=0, select bank1
  2882     0025  00A0               	movwf	___flmul@sign^(0+128)
  2883     0026                     l1718:
  2884     0026  1283               	bcf	3,5	;RP0=0, select bank0
  2885     0027  1303               	bcf	3,6	;RP1=0, select bank0
  2886     0028  085C               	movf	___flmul@b+3,w
  2887     0029  00E1               	movwf	??___flmul
  2888     002A  0761               	addwf	??___flmul,w
  2889     002B  1683               	bsf	3,5	;RP0=1, select bank1
  2890     002C  1303               	bcf	3,6	;RP1=0, select bank1
  2891     002D  00A6               	movwf	___flmul@bexp^(0+128)
  2892     002E                     l1720:
  2893     002E  1283               	bcf	3,5	;RP0=0, select bank0
  2894     002F  1303               	bcf	3,6	;RP1=0, select bank0
  2895     0030  1FDB               	btfss	___flmul@b+2,7
  2896     0031  2833               	goto	u1961
  2897     0032  2834               	goto	u1960
  2898     0033                     u1961:
  2899     0033  2837               	goto	l1724
  2900     0034                     u1960:
  2901     0034                     l1722:
  2902     0034  1683               	bsf	3,5	;RP0=1, select bank1
  2903     0035  1303               	bcf	3,6	;RP1=0, select bank1
  2904     0036  1426               	bsf	___flmul@bexp^(0+128),0
  2905     0037                     l1724:
  2906     0037  1683               	bsf	3,5	;RP0=1, select bank1
  2907     0038  1303               	bcf	3,6	;RP1=0, select bank1
  2908     0039  0826               	movf	___flmul@bexp^(0+128),w
  2909     003A  1903               	btfsc	3,2
  2910     003B  283D               	goto	u1971
  2911     003C  283E               	goto	u1970
  2912     003D                     u1971:
  2913     003D  2850               	goto	l1732
  2914     003E                     u1970:
  2915     003E                     l1726:
  2916     003E  0A26               	incf	___flmul@bexp^(0+128),w
  2917     003F  1D03               	btfss	3,2
  2918     0040  2842               	goto	u1981
  2919     0041  2843               	goto	u1980
  2920     0042                     u1981:
  2921     0042  284D               	goto	l1730
  2922     0043                     u1980:
  2923     0043                     l1728:
  2924     0043  3000               	movlw	0
  2925     0044  1283               	bcf	3,5	;RP0=0, select bank0
  2926     0045  1303               	bcf	3,6	;RP1=0, select bank0
  2927     0046  00DC               	movwf	___flmul@b+3
  2928     0047  3000               	movlw	0
  2929     0048  00DB               	movwf	___flmul@b+2
  2930     0049  3000               	movlw	0
  2931     004A  00DA               	movwf	___flmul@b+1
  2932     004B  3000               	movlw	0
  2933     004C  00D9               	movwf	___flmul@b
  2934     004D                     l1730:
  2935     004D  1283               	bcf	3,5	;RP0=0, select bank0
  2936     004E  17DB               	bsf	___flmul@b+2,7
  2937     004F  285A               	goto	l1734
  2938     0050                     l1732:
  2939     0050  3000               	movlw	0
  2940     0051  1283               	bcf	3,5	;RP0=0, select bank0
  2941     0052  1303               	bcf	3,6	;RP1=0, select bank0
  2942     0053  00DC               	movwf	___flmul@b+3
  2943     0054  3000               	movlw	0
  2944     0055  00DB               	movwf	___flmul@b+2
  2945     0056  3000               	movlw	0
  2946     0057  00DA               	movwf	___flmul@b+1
  2947     0058  3000               	movlw	0
  2948     0059  00D9               	movwf	___flmul@b
  2949     005A                     l1734:
  2950     005A  0860               	movf	___flmul@a+3,w
  2951     005B  3980               	andlw	128
  2952     005C  00E1               	movwf	??___flmul
  2953     005D  0861               	movf	??___flmul,w
  2954     005E  1683               	bsf	3,5	;RP0=1, select bank1
  2955     005F  1303               	bcf	3,6	;RP1=0, select bank1
  2956     0060  06A0               	xorwf	___flmul@sign^(0+128),f
  2957     0061                     l1736:
  2958     0061  1283               	bcf	3,5	;RP0=0, select bank0
  2959     0062  1303               	bcf	3,6	;RP1=0, select bank0
  2960     0063  0860               	movf	___flmul@a+3,w
  2961     0064  00E1               	movwf	??___flmul
  2962     0065  0761               	addwf	??___flmul,w
  2963     0066  1683               	bsf	3,5	;RP0=1, select bank1
  2964     0067  1303               	bcf	3,6	;RP1=0, select bank1
  2965     0068  00A5               	movwf	___flmul@aexp^(0+128)
  2966     0069                     l1738:
  2967     0069  1283               	bcf	3,5	;RP0=0, select bank0
  2968     006A  1303               	bcf	3,6	;RP1=0, select bank0
  2969     006B  1FDF               	btfss	___flmul@a+2,7
  2970     006C  286E               	goto	u1991
  2971     006D  286F               	goto	u1990
  2972     006E                     u1991:
  2973     006E  2872               	goto	l1742
  2974     006F                     u1990:
  2975     006F                     l1740:
  2976     006F  1683               	bsf	3,5	;RP0=1, select bank1
  2977     0070  1303               	bcf	3,6	;RP1=0, select bank1
  2978     0071  1425               	bsf	___flmul@aexp^(0+128),0
  2979     0072                     l1742:
  2980     0072  1683               	bsf	3,5	;RP0=1, select bank1
  2981     0073  1303               	bcf	3,6	;RP1=0, select bank1
  2982     0074  0825               	movf	___flmul@aexp^(0+128),w
  2983     0075  1903               	btfsc	3,2
  2984     0076  2878               	goto	u2001
  2985     0077  2879               	goto	u2000
  2986     0078                     u2001:
  2987     0078  288B               	goto	l1750
  2988     0079                     u2000:
  2989     0079                     l1744:
  2990     0079  0A25               	incf	___flmul@aexp^(0+128),w
  2991     007A  1D03               	btfss	3,2
  2992     007B  287D               	goto	u2011
  2993     007C  287E               	goto	u2010
  2994     007D                     u2011:
  2995     007D  2888               	goto	l1748
  2996     007E                     u2010:
  2997     007E                     l1746:
  2998     007E  3000               	movlw	0
  2999     007F  1283               	bcf	3,5	;RP0=0, select bank0
  3000     0080  1303               	bcf	3,6	;RP1=0, select bank0
  3001     0081  00E0               	movwf	___flmul@a+3
  3002     0082  3000               	movlw	0
  3003     0083  00DF               	movwf	___flmul@a+2
  3004     0084  3000               	movlw	0
  3005     0085  00DE               	movwf	___flmul@a+1
  3006     0086  3000               	movlw	0
  3007     0087  00DD               	movwf	___flmul@a
  3008     0088                     l1748:
  3009     0088  1283               	bcf	3,5	;RP0=0, select bank0
  3010     0089  17DF               	bsf	___flmul@a+2,7
  3011     008A  2895               	goto	l1752
  3012     008B                     l1750:
  3013     008B  3000               	movlw	0
  3014     008C  1283               	bcf	3,5	;RP0=0, select bank0
  3015     008D  1303               	bcf	3,6	;RP1=0, select bank0
  3016     008E  00E0               	movwf	___flmul@a+3
  3017     008F  3000               	movlw	0
  3018     0090  00DF               	movwf	___flmul@a+2
  3019     0091  3000               	movlw	0
  3020     0092  00DE               	movwf	___flmul@a+1
  3021     0093  3000               	movlw	0
  3022     0094  00DD               	movwf	___flmul@a
  3023     0095                     l1752:
  3024     0095  1683               	bsf	3,5	;RP0=1, select bank1
  3025     0096  1303               	bcf	3,6	;RP1=0, select bank1
  3026     0097  0825               	movf	___flmul@aexp^(0+128),w
  3027     0098  1903               	btfsc	3,2
  3028     0099  289B               	goto	u2021
  3029     009A  289C               	goto	u2020
  3030     009B                     u2021:
  3031     009B  28A1               	goto	l1756
  3032     009C                     u2020:
  3033     009C                     l1754:
  3034     009C  0826               	movf	___flmul@bexp^(0+128),w
  3035     009D  1D03               	btfss	3,2
  3036     009E  28A0               	goto	u2031
  3037     009F  28A1               	goto	u2030
  3038     00A0                     u2031:
  3039     00A0  28AC               	goto	l1760
  3040     00A1                     u2030:
  3041     00A1                     l1756:
  3042     00A1  3000               	movlw	0
  3043     00A2  1283               	bcf	3,5	;RP0=0, select bank0
  3044     00A3  1303               	bcf	3,6	;RP1=0, select bank0
  3045     00A4  00DC               	movwf	?___flmul+3
  3046     00A5  3000               	movlw	0
  3047     00A6  00DB               	movwf	?___flmul+2
  3048     00A7  3000               	movlw	0
  3049     00A8  00DA               	movwf	?___flmul+1
  3050     00A9  3000               	movlw	0
  3051     00AA  00D9               	movwf	?___flmul
  3052     00AB  2D27               	goto	l711
  3053     00AC                     l1760:
  3054     00AC  1283               	bcf	3,5	;RP0=0, select bank0
  3055     00AD  1303               	bcf	3,6	;RP1=0, select bank0
  3056     00AE  0859               	movf	___flmul@b,w
  3057     00AF  00F4               	movwf	__Umul8_16@multiplicand
  3058     00B0  085F               	movf	___flmul@a+2,w
  3059     00B1  120A  158A  23BC  120A  118A  	fcall	__Umul8_16
  3060     00B6  0875               	movf	?__Umul8_16+1,w
  3061     00B7  1683               	bsf	3,5	;RP0=1, select bank1
  3062     00B8  1303               	bcf	3,6	;RP1=0, select bank1
  3063     00B9  00AC               	movwf	(___flmul@temp+1)^(0+128)
  3064     00BA  0874               	movf	?__Umul8_16,w
  3065     00BB  00AB               	movwf	___flmul@temp^(0+128)
  3066     00BC                     l1762:
  3067     00BC  082B               	movf	___flmul@temp^(0+128),w
  3068     00BD  1283               	bcf	3,5	;RP0=0, select bank0
  3069     00BE  1303               	bcf	3,6	;RP1=0, select bank0
  3070     00BF  00E1               	movwf	??___flmul
  3071     00C0  01E2               	clrf	??___flmul+1
  3072     00C1  01E3               	clrf	??___flmul+2
  3073     00C2  01E4               	clrf	??___flmul+3
  3074     00C3  0864               	movf	??___flmul+3,w
  3075     00C4  1683               	bsf	3,5	;RP0=1, select bank1
  3076     00C5  1303               	bcf	3,6	;RP1=0, select bank1
  3077     00C6  00A4               	movwf	(___flmul@grs+3)^(0+128)
  3078     00C7  1283               	bcf	3,5	;RP0=0, select bank0
  3079     00C8  1303               	bcf	3,6	;RP1=0, select bank0
  3080     00C9  0863               	movf	??___flmul+2,w
  3081     00CA  1683               	bsf	3,5	;RP0=1, select bank1
  3082     00CB  1303               	bcf	3,6	;RP1=0, select bank1
  3083     00CC  00A3               	movwf	(___flmul@grs+2)^(0+128)
  3084     00CD  1283               	bcf	3,5	;RP0=0, select bank0
  3085     00CE  1303               	bcf	3,6	;RP1=0, select bank0
  3086     00CF  0862               	movf	??___flmul+1,w
  3087     00D0  1683               	bsf	3,5	;RP0=1, select bank1
  3088     00D1  1303               	bcf	3,6	;RP1=0, select bank1
  3089     00D2  00A2               	movwf	(___flmul@grs+1)^(0+128)
  3090     00D3  1283               	bcf	3,5	;RP0=0, select bank0
  3091     00D4  1303               	bcf	3,6	;RP1=0, select bank0
  3092     00D5  0861               	movf	??___flmul,w
  3093     00D6  1683               	bsf	3,5	;RP0=1, select bank1
  3094     00D7  1303               	bcf	3,6	;RP1=0, select bank1
  3095     00D8  00A1               	movwf	___flmul@grs^(0+128)
  3096     00D9                     l1764:
  3097     00D9  082C               	movf	(___flmul@temp^(0+128)+1),w
  3098     00DA  1283               	bcf	3,5	;RP0=0, select bank0
  3099     00DB  1303               	bcf	3,6	;RP1=0, select bank0
  3100     00DC  00E1               	movwf	??___flmul
  3101     00DD  01E2               	clrf	??___flmul+1
  3102     00DE  01E3               	clrf	??___flmul+2
  3103     00DF  01E4               	clrf	??___flmul+3
  3104     00E0  0864               	movf	??___flmul+3,w
  3105     00E1  1683               	bsf	3,5	;RP0=1, select bank1
  3106     00E2  1303               	bcf	3,6	;RP1=0, select bank1
  3107     00E3  00AA               	movwf	(___flmul@prod+3)^(0+128)
  3108     00E4  1283               	bcf	3,5	;RP0=0, select bank0
  3109     00E5  1303               	bcf	3,6	;RP1=0, select bank0
  3110     00E6  0863               	movf	??___flmul+2,w
  3111     00E7  1683               	bsf	3,5	;RP0=1, select bank1
  3112     00E8  1303               	bcf	3,6	;RP1=0, select bank1
  3113     00E9  00A9               	movwf	(___flmul@prod+2)^(0+128)
  3114     00EA  1283               	bcf	3,5	;RP0=0, select bank0
  3115     00EB  1303               	bcf	3,6	;RP1=0, select bank0
  3116     00EC  0862               	movf	??___flmul+1,w
  3117     00ED  1683               	bsf	3,5	;RP0=1, select bank1
  3118     00EE  1303               	bcf	3,6	;RP1=0, select bank1
  3119     00EF  00A8               	movwf	(___flmul@prod+1)^(0+128)
  3120     00F0  1283               	bcf	3,5	;RP0=0, select bank0
  3121     00F1  1303               	bcf	3,6	;RP1=0, select bank0
  3122     00F2  0861               	movf	??___flmul,w
  3123     00F3  1683               	bsf	3,5	;RP0=1, select bank1
  3124     00F4  1303               	bcf	3,6	;RP1=0, select bank1
  3125     00F5  00A7               	movwf	___flmul@prod^(0+128)
  3126     00F6  1283               	bcf	3,5	;RP0=0, select bank0
  3127     00F7  1303               	bcf	3,6	;RP1=0, select bank0
  3128     00F8  085A               	movf	___flmul@b+1,w
  3129     00F9  00F4               	movwf	__Umul8_16@multiplicand
  3130     00FA  085E               	movf	___flmul@a+1,w
  3131     00FB  120A  158A  23BC  120A  118A  	fcall	__Umul8_16
  3132     0100  0875               	movf	?__Umul8_16+1,w
  3133     0101  1683               	bsf	3,5	;RP0=1, select bank1
  3134     0102  1303               	bcf	3,6	;RP1=0, select bank1
  3135     0103  00AC               	movwf	(___flmul@temp+1)^(0+128)
  3136     0104  0874               	movf	?__Umul8_16,w
  3137     0105  00AB               	movwf	___flmul@temp^(0+128)
  3138     0106                     l1766:
  3139     0106  082B               	movf	___flmul@temp^(0+128),w
  3140     0107  1283               	bcf	3,5	;RP0=0, select bank0
  3141     0108  1303               	bcf	3,6	;RP1=0, select bank0
  3142     0109  00E1               	movwf	??___flmul
  3143     010A  01E2               	clrf	??___flmul+1
  3144     010B  01E3               	clrf	??___flmul+2
  3145     010C  01E4               	clrf	??___flmul+3
  3146     010D  0861               	movf	??___flmul,w
  3147     010E  1683               	bsf	3,5	;RP0=1, select bank1
  3148     010F  1303               	bcf	3,6	;RP1=0, select bank1
  3149     0110  07A1               	addwf	___flmul@grs^(0+128),f
  3150     0111  1283               	bcf	3,5	;RP0=0, select bank0
  3151     0112  1303               	bcf	3,6	;RP1=0, select bank0
  3152     0113  0862               	movf	??___flmul+1,w
  3153     0114  1103               	clrz
  3154     0115  1803               	skipnc
  3155     0116  3E01               	addlw	1
  3156     0117  1903               	skipnz
  3157     0118  291C               	goto	u2041
  3158     0119  1683               	bsf	3,5	;RP0=1, select bank1
  3159     011A  1303               	bcf	3,6	;RP1=0, select bank1
  3160     011B  07A2               	addwf	(___flmul@grs+1)^(0+128),f
  3161     011C                     u2041:
  3162     011C  1283               	bcf	3,5	;RP0=0, select bank0
  3163     011D  1303               	bcf	3,6	;RP1=0, select bank0
  3164     011E  0863               	movf	??___flmul+2,w
  3165     011F  1103               	clrz
  3166     0120  1803               	skipnc
  3167     0121  3E01               	addlw	1
  3168     0122  1903               	skipnz
  3169     0123  2927               	goto	u2042
  3170     0124  1683               	bsf	3,5	;RP0=1, select bank1
  3171     0125  1303               	bcf	3,6	;RP1=0, select bank1
  3172     0126  07A3               	addwf	(___flmul@grs+2)^(0+128),f
  3173     0127                     u2042:
  3174     0127  1283               	bcf	3,5	;RP0=0, select bank0
  3175     0128  1303               	bcf	3,6	;RP1=0, select bank0
  3176     0129  0864               	movf	??___flmul+3,w
  3177     012A  1103               	clrz
  3178     012B  1803               	skipnc
  3179     012C  3E01               	addlw	1
  3180     012D  1903               	skipnz
  3181     012E  2932               	goto	u2043
  3182     012F  1683               	bsf	3,5	;RP0=1, select bank1
  3183     0130  1303               	bcf	3,6	;RP1=0, select bank1
  3184     0131  07A4               	addwf	(___flmul@grs+3)^(0+128),f
  3185     0132                     u2043:
  3186     0132  1283               	bcf	3,5	;RP0=0, select bank0
  3187     0133  1303               	bcf	3,6	;RP1=0, select bank0
  3188     0134  1683               	bsf	3,5	;RP0=1, select bank1
  3189     0135  1303               	bcf	3,6	;RP1=0, select bank1
  3190     0136                     l1768:
  3191     0136  082C               	movf	(___flmul@temp^(0+128)+1),w
  3192     0137  1283               	bcf	3,5	;RP0=0, select bank0
  3193     0138  1303               	bcf	3,6	;RP1=0, select bank0
  3194     0139  00E1               	movwf	??___flmul
  3195     013A  01E2               	clrf	??___flmul+1
  3196     013B  01E3               	clrf	??___flmul+2
  3197     013C  01E4               	clrf	??___flmul+3
  3198     013D  0861               	movf	??___flmul,w
  3199     013E  1683               	bsf	3,5	;RP0=1, select bank1
  3200     013F  1303               	bcf	3,6	;RP1=0, select bank1
  3201     0140  07A7               	addwf	___flmul@prod^(0+128),f
  3202     0141  1283               	bcf	3,5	;RP0=0, select bank0
  3203     0142  1303               	bcf	3,6	;RP1=0, select bank0
  3204     0143  0862               	movf	??___flmul+1,w
  3205     0144  1103               	clrz
  3206     0145  1803               	skipnc
  3207     0146  3E01               	addlw	1
  3208     0147  1903               	skipnz
  3209     0148  294C               	goto	u2051
  3210     0149  1683               	bsf	3,5	;RP0=1, select bank1
  3211     014A  1303               	bcf	3,6	;RP1=0, select bank1
  3212     014B  07A8               	addwf	(___flmul@prod+1)^(0+128),f
  3213     014C                     u2051:
  3214     014C  1283               	bcf	3,5	;RP0=0, select bank0
  3215     014D  1303               	bcf	3,6	;RP1=0, select bank0
  3216     014E  0863               	movf	??___flmul+2,w
  3217     014F  1103               	clrz
  3218     0150  1803               	skipnc
  3219     0151  3E01               	addlw	1
  3220     0152  1903               	skipnz
  3221     0153  2957               	goto	u2052
  3222     0154  1683               	bsf	3,5	;RP0=1, select bank1
  3223     0155  1303               	bcf	3,6	;RP1=0, select bank1
  3224     0156  07A9               	addwf	(___flmul@prod+2)^(0+128),f
  3225     0157                     u2052:
  3226     0157  1283               	bcf	3,5	;RP0=0, select bank0
  3227     0158  1303               	bcf	3,6	;RP1=0, select bank0
  3228     0159  0864               	movf	??___flmul+3,w
  3229     015A  1103               	clrz
  3230     015B  1803               	skipnc
  3231     015C  3E01               	addlw	1
  3232     015D  1903               	skipnz
  3233     015E  2962               	goto	u2053
  3234     015F  1683               	bsf	3,5	;RP0=1, select bank1
  3235     0160  1303               	bcf	3,6	;RP1=0, select bank1
  3236     0161  07AA               	addwf	(___flmul@prod+3)^(0+128),f
  3237     0162                     u2053:
  3238     0162  1283               	bcf	3,5	;RP0=0, select bank0
  3239     0163  1303               	bcf	3,6	;RP1=0, select bank0
  3240     0164  1683               	bsf	3,5	;RP0=1, select bank1
  3241     0165  1303               	bcf	3,6	;RP1=0, select bank1
  3242     0166  1283               	bcf	3,5	;RP0=0, select bank0
  3243     0167  1303               	bcf	3,6	;RP1=0, select bank0
  3244     0168  085B               	movf	___flmul@b+2,w
  3245     0169  00F4               	movwf	__Umul8_16@multiplicand
  3246     016A  085D               	movf	___flmul@a,w
  3247     016B  120A  158A  23BC  120A  118A  	fcall	__Umul8_16
  3248     0170  0875               	movf	?__Umul8_16+1,w
  3249     0171  1683               	bsf	3,5	;RP0=1, select bank1
  3250     0172  1303               	bcf	3,6	;RP1=0, select bank1
  3251     0173  00AC               	movwf	(___flmul@temp+1)^(0+128)
  3252     0174  0874               	movf	?__Umul8_16,w
  3253     0175  00AB               	movwf	___flmul@temp^(0+128)
  3254     0176                     l1770:
  3255     0176  082B               	movf	___flmul@temp^(0+128),w
  3256     0177  1283               	bcf	3,5	;RP0=0, select bank0
  3257     0178  1303               	bcf	3,6	;RP1=0, select bank0
  3258     0179  00E1               	movwf	??___flmul
  3259     017A  01E2               	clrf	??___flmul+1
  3260     017B  01E3               	clrf	??___flmul+2
  3261     017C  01E4               	clrf	??___flmul+3
  3262     017D  0861               	movf	??___flmul,w
  3263     017E  1683               	bsf	3,5	;RP0=1, select bank1
  3264     017F  1303               	bcf	3,6	;RP1=0, select bank1
  3265     0180  07A1               	addwf	___flmul@grs^(0+128),f
  3266     0181  1283               	bcf	3,5	;RP0=0, select bank0
  3267     0182  1303               	bcf	3,6	;RP1=0, select bank0
  3268     0183  0862               	movf	??___flmul+1,w
  3269     0184  1103               	clrz
  3270     0185  1803               	skipnc
  3271     0186  3E01               	addlw	1
  3272     0187  1903               	skipnz
  3273     0188  298C               	goto	u2061
  3274     0189  1683               	bsf	3,5	;RP0=1, select bank1
  3275     018A  1303               	bcf	3,6	;RP1=0, select bank1
  3276     018B  07A2               	addwf	(___flmul@grs+1)^(0+128),f
  3277     018C                     u2061:
  3278     018C  1283               	bcf	3,5	;RP0=0, select bank0
  3279     018D  1303               	bcf	3,6	;RP1=0, select bank0
  3280     018E  0863               	movf	??___flmul+2,w
  3281     018F  1103               	clrz
  3282     0190  1803               	skipnc
  3283     0191  3E01               	addlw	1
  3284     0192  1903               	skipnz
  3285     0193  2997               	goto	u2062
  3286     0194  1683               	bsf	3,5	;RP0=1, select bank1
  3287     0195  1303               	bcf	3,6	;RP1=0, select bank1
  3288     0196  07A3               	addwf	(___flmul@grs+2)^(0+128),f
  3289     0197                     u2062:
  3290     0197  1283               	bcf	3,5	;RP0=0, select bank0
  3291     0198  1303               	bcf	3,6	;RP1=0, select bank0
  3292     0199  0864               	movf	??___flmul+3,w
  3293     019A  1103               	clrz
  3294     019B  1803               	skipnc
  3295     019C  3E01               	addlw	1
  3296     019D  1903               	skipnz
  3297     019E  29A2               	goto	u2063
  3298     019F  1683               	bsf	3,5	;RP0=1, select bank1
  3299     01A0  1303               	bcf	3,6	;RP1=0, select bank1
  3300     01A1  07A4               	addwf	(___flmul@grs+3)^(0+128),f
  3301     01A2                     u2063:
  3302     01A2  1283               	bcf	3,5	;RP0=0, select bank0
  3303     01A3  1303               	bcf	3,6	;RP1=0, select bank0
  3304     01A4  1683               	bsf	3,5	;RP0=1, select bank1
  3305     01A5  1303               	bcf	3,6	;RP1=0, select bank1
  3306     01A6                     l1772:
  3307     01A6  082C               	movf	(___flmul@temp^(0+128)+1),w
  3308     01A7  1283               	bcf	3,5	;RP0=0, select bank0
  3309     01A8  1303               	bcf	3,6	;RP1=0, select bank0
  3310     01A9  00E1               	movwf	??___flmul
  3311     01AA  01E2               	clrf	??___flmul+1
  3312     01AB  01E3               	clrf	??___flmul+2
  3313     01AC  01E4               	clrf	??___flmul+3
  3314     01AD  0861               	movf	??___flmul,w
  3315     01AE  1683               	bsf	3,5	;RP0=1, select bank1
  3316     01AF  1303               	bcf	3,6	;RP1=0, select bank1
  3317     01B0  07A7               	addwf	___flmul@prod^(0+128),f
  3318     01B1  1283               	bcf	3,5	;RP0=0, select bank0
  3319     01B2  1303               	bcf	3,6	;RP1=0, select bank0
  3320     01B3  0862               	movf	??___flmul+1,w
  3321     01B4  1103               	clrz
  3322     01B5  1803               	skipnc
  3323     01B6  3E01               	addlw	1
  3324     01B7  1903               	skipnz
  3325     01B8  29BC               	goto	u2071
  3326     01B9  1683               	bsf	3,5	;RP0=1, select bank1
  3327     01BA  1303               	bcf	3,6	;RP1=0, select bank1
  3328     01BB  07A8               	addwf	(___flmul@prod+1)^(0+128),f
  3329     01BC                     u2071:
  3330     01BC  1283               	bcf	3,5	;RP0=0, select bank0
  3331     01BD  1303               	bcf	3,6	;RP1=0, select bank0
  3332     01BE  0863               	movf	??___flmul+2,w
  3333     01BF  1103               	clrz
  3334     01C0  1803               	skipnc
  3335     01C1  3E01               	addlw	1
  3336     01C2  1903               	skipnz
  3337     01C3  29C7               	goto	u2072
  3338     01C4  1683               	bsf	3,5	;RP0=1, select bank1
  3339     01C5  1303               	bcf	3,6	;RP1=0, select bank1
  3340     01C6  07A9               	addwf	(___flmul@prod+2)^(0+128),f
  3341     01C7                     u2072:
  3342     01C7  1283               	bcf	3,5	;RP0=0, select bank0
  3343     01C8  1303               	bcf	3,6	;RP1=0, select bank0
  3344     01C9  0864               	movf	??___flmul+3,w
  3345     01CA  1103               	clrz
  3346     01CB  1803               	skipnc
  3347     01CC  3E01               	addlw	1
  3348     01CD  1903               	skipnz
  3349     01CE  29D2               	goto	u2073
  3350     01CF  1683               	bsf	3,5	;RP0=1, select bank1
  3351     01D0  1303               	bcf	3,6	;RP1=0, select bank1
  3352     01D1  07AA               	addwf	(___flmul@prod+3)^(0+128),f
  3353     01D2                     u2073:
  3354     01D2  1283               	bcf	3,5	;RP0=0, select bank0
  3355     01D3  1303               	bcf	3,6	;RP1=0, select bank0
  3356     01D4  1683               	bsf	3,5	;RP0=1, select bank1
  3357     01D5  1303               	bcf	3,6	;RP1=0, select bank1
  3358     01D6                     l1774:
  3359     01D6  3008               	movlw	8
  3360     01D7  1283               	bcf	3,5	;RP0=0, select bank0
  3361     01D8  1303               	bcf	3,6	;RP1=0, select bank0
  3362     01D9  00E1               	movwf	??___flmul
  3363     01DA                     u2085:
  3364     01DA  1003               	clrc
  3365     01DB  1683               	bsf	3,5	;RP0=1, select bank1
  3366     01DC  1303               	bcf	3,6	;RP1=0, select bank1
  3367     01DD  0DA1               	rlf	___flmul@grs^(0+128),f
  3368     01DE  0DA2               	rlf	(___flmul@grs+1)^(0+128),f
  3369     01DF  0DA3               	rlf	(___flmul@grs+2)^(0+128),f
  3370     01E0  0DA4               	rlf	(___flmul@grs+3)^(0+128),f
  3371     01E1  1283               	bcf	3,5	;RP0=0, select bank0
  3372     01E2  1303               	bcf	3,6	;RP1=0, select bank0
  3373     01E3  0BE1               	decfsz	??___flmul,f
  3374     01E4  29DA               	goto	u2085
  3375     01E5                     l1776:
  3376     01E5  085A               	movf	___flmul@b+1,w
  3377     01E6  00F4               	movwf	__Umul8_16@multiplicand
  3378     01E7  085D               	movf	___flmul@a,w
  3379     01E8  120A  158A  23BC  120A  118A  	fcall	__Umul8_16
  3380     01ED  0875               	movf	?__Umul8_16+1,w
  3381     01EE  1683               	bsf	3,5	;RP0=1, select bank1
  3382     01EF  1303               	bcf	3,6	;RP1=0, select bank1
  3383     01F0  00AC               	movwf	(___flmul@temp+1)^(0+128)
  3384     01F1  0874               	movf	?__Umul8_16,w
  3385     01F2  00AB               	movwf	___flmul@temp^(0+128)
  3386     01F3                     l1778:
  3387     01F3  082B               	movf	___flmul@temp^(0+128),w
  3388     01F4  1283               	bcf	3,5	;RP0=0, select bank0
  3389     01F5  1303               	bcf	3,6	;RP1=0, select bank0
  3390     01F6  00E1               	movwf	??___flmul
  3391     01F7  1683               	bsf	3,5	;RP0=1, select bank1
  3392     01F8  1303               	bcf	3,6	;RP1=0, select bank1
  3393     01F9  082C               	movf	(___flmul@temp+1)^(0+128),w
  3394     01FA  1283               	bcf	3,5	;RP0=0, select bank0
  3395     01FB  1303               	bcf	3,6	;RP1=0, select bank0
  3396     01FC  00E2               	movwf	??___flmul+1
  3397     01FD  01E3               	clrf	??___flmul+2
  3398     01FE  01E4               	clrf	??___flmul+3
  3399     01FF  0861               	movf	??___flmul,w
  3400     0200  1683               	bsf	3,5	;RP0=1, select bank1
  3401     0201  1303               	bcf	3,6	;RP1=0, select bank1
  3402     0202  07A1               	addwf	___flmul@grs^(0+128),f
  3403     0203  1283               	bcf	3,5	;RP0=0, select bank0
  3404     0204  1303               	bcf	3,6	;RP1=0, select bank0
  3405     0205  0862               	movf	??___flmul+1,w
  3406     0206  1103               	clrz
  3407     0207  1803               	skipnc
  3408     0208  3E01               	addlw	1
  3409     0209  1903               	skipnz
  3410     020A  2A0E               	goto	u2091
  3411     020B  1683               	bsf	3,5	;RP0=1, select bank1
  3412     020C  1303               	bcf	3,6	;RP1=0, select bank1
  3413     020D  07A2               	addwf	(___flmul@grs+1)^(0+128),f
  3414     020E                     u2091:
  3415     020E  1283               	bcf	3,5	;RP0=0, select bank0
  3416     020F  1303               	bcf	3,6	;RP1=0, select bank0
  3417     0210  0863               	movf	??___flmul+2,w
  3418     0211  1103               	clrz
  3419     0212  1803               	skipnc
  3420     0213  3E01               	addlw	1
  3421     0214  1903               	skipnz
  3422     0215  2A19               	goto	u2092
  3423     0216  1683               	bsf	3,5	;RP0=1, select bank1
  3424     0217  1303               	bcf	3,6	;RP1=0, select bank1
  3425     0218  07A3               	addwf	(___flmul@grs+2)^(0+128),f
  3426     0219                     u2092:
  3427     0219  1283               	bcf	3,5	;RP0=0, select bank0
  3428     021A  1303               	bcf	3,6	;RP1=0, select bank0
  3429     021B  0864               	movf	??___flmul+3,w
  3430     021C  1103               	clrz
  3431     021D  1803               	skipnc
  3432     021E  3E01               	addlw	1
  3433     021F  1903               	skipnz
  3434     0220  2A24               	goto	u2093
  3435     0221  1683               	bsf	3,5	;RP0=1, select bank1
  3436     0222  1303               	bcf	3,6	;RP1=0, select bank1
  3437     0223  07A4               	addwf	(___flmul@grs+3)^(0+128),f
  3438     0224                     u2093:
  3439     0224  1283               	bcf	3,5	;RP0=0, select bank0
  3440     0225  1303               	bcf	3,6	;RP1=0, select bank0
  3441     0226  1683               	bsf	3,5	;RP0=1, select bank1
  3442     0227  1303               	bcf	3,6	;RP1=0, select bank1
  3443     0228                     l1780:
  3444     0228  1283               	bcf	3,5	;RP0=0, select bank0
  3445     0229  1303               	bcf	3,6	;RP1=0, select bank0
  3446     022A  0859               	movf	___flmul@b,w
  3447     022B  00F4               	movwf	__Umul8_16@multiplicand
  3448     022C  085E               	movf	___flmul@a+1,w
  3449     022D  120A  158A  23BC  120A  118A  	fcall	__Umul8_16
  3450     0232  0875               	movf	?__Umul8_16+1,w
  3451     0233  1683               	bsf	3,5	;RP0=1, select bank1
  3452     0234  1303               	bcf	3,6	;RP1=0, select bank1
  3453     0235  00AC               	movwf	(___flmul@temp+1)^(0+128)
  3454     0236  0874               	movf	?__Umul8_16,w
  3455     0237  00AB               	movwf	___flmul@temp^(0+128)
  3456     0238                     l1782:
  3457     0238  082B               	movf	___flmul@temp^(0+128),w
  3458     0239  1283               	bcf	3,5	;RP0=0, select bank0
  3459     023A  1303               	bcf	3,6	;RP1=0, select bank0
  3460     023B  00E1               	movwf	??___flmul
  3461     023C  1683               	bsf	3,5	;RP0=1, select bank1
  3462     023D  1303               	bcf	3,6	;RP1=0, select bank1
  3463     023E  082C               	movf	(___flmul@temp+1)^(0+128),w
  3464     023F  1283               	bcf	3,5	;RP0=0, select bank0
  3465     0240  1303               	bcf	3,6	;RP1=0, select bank0
  3466     0241  00E2               	movwf	??___flmul+1
  3467     0242  01E3               	clrf	??___flmul+2
  3468     0243  01E4               	clrf	??___flmul+3
  3469     0244  0861               	movf	??___flmul,w
  3470     0245  1683               	bsf	3,5	;RP0=1, select bank1
  3471     0246  1303               	bcf	3,6	;RP1=0, select bank1
  3472     0247  07A1               	addwf	___flmul@grs^(0+128),f
  3473     0248  1283               	bcf	3,5	;RP0=0, select bank0
  3474     0249  1303               	bcf	3,6	;RP1=0, select bank0
  3475     024A  0862               	movf	??___flmul+1,w
  3476     024B  1103               	clrz
  3477     024C  1803               	skipnc
  3478     024D  3E01               	addlw	1
  3479     024E  1903               	skipnz
  3480     024F  2A53               	goto	u2101
  3481     0250  1683               	bsf	3,5	;RP0=1, select bank1
  3482     0251  1303               	bcf	3,6	;RP1=0, select bank1
  3483     0252  07A2               	addwf	(___flmul@grs+1)^(0+128),f
  3484     0253                     u2101:
  3485     0253  1283               	bcf	3,5	;RP0=0, select bank0
  3486     0254  1303               	bcf	3,6	;RP1=0, select bank0
  3487     0255  0863               	movf	??___flmul+2,w
  3488     0256  1103               	clrz
  3489     0257  1803               	skipnc
  3490     0258  3E01               	addlw	1
  3491     0259  1903               	skipnz
  3492     025A  2A5E               	goto	u2102
  3493     025B  1683               	bsf	3,5	;RP0=1, select bank1
  3494     025C  1303               	bcf	3,6	;RP1=0, select bank1
  3495     025D  07A3               	addwf	(___flmul@grs+2)^(0+128),f
  3496     025E                     u2102:
  3497     025E  1283               	bcf	3,5	;RP0=0, select bank0
  3498     025F  1303               	bcf	3,6	;RP1=0, select bank0
  3499     0260  0864               	movf	??___flmul+3,w
  3500     0261  1103               	clrz
  3501     0262  1803               	skipnc
  3502     0263  3E01               	addlw	1
  3503     0264  1903               	skipnz
  3504     0265  2A69               	goto	u2103
  3505     0266  1683               	bsf	3,5	;RP0=1, select bank1
  3506     0267  1303               	bcf	3,6	;RP1=0, select bank1
  3507     0268  07A4               	addwf	(___flmul@grs+3)^(0+128),f
  3508     0269                     u2103:
  3509     0269  1283               	bcf	3,5	;RP0=0, select bank0
  3510     026A  1303               	bcf	3,6	;RP1=0, select bank0
  3511     026B  1683               	bsf	3,5	;RP0=1, select bank1
  3512     026C  1303               	bcf	3,6	;RP1=0, select bank1
  3513     026D                     l1784:
  3514     026D  3008               	movlw	8
  3515     026E  1283               	bcf	3,5	;RP0=0, select bank0
  3516     026F  1303               	bcf	3,6	;RP1=0, select bank0
  3517     0270  00E1               	movwf	??___flmul
  3518     0271                     u2115:
  3519     0271  1003               	clrc
  3520     0272  1683               	bsf	3,5	;RP0=1, select bank1
  3521     0273  1303               	bcf	3,6	;RP1=0, select bank1
  3522     0274  0DA1               	rlf	___flmul@grs^(0+128),f
  3523     0275  0DA2               	rlf	(___flmul@grs+1)^(0+128),f
  3524     0276  0DA3               	rlf	(___flmul@grs+2)^(0+128),f
  3525     0277  0DA4               	rlf	(___flmul@grs+3)^(0+128),f
  3526     0278  1283               	bcf	3,5	;RP0=0, select bank0
  3527     0279  1303               	bcf	3,6	;RP1=0, select bank0
  3528     027A  0BE1               	decfsz	??___flmul,f
  3529     027B  2A71               	goto	u2115
  3530     027C  0859               	movf	___flmul@b,w
  3531     027D  00F4               	movwf	__Umul8_16@multiplicand
  3532     027E  085D               	movf	___flmul@a,w
  3533     027F  120A  158A  23BC  120A  118A  	fcall	__Umul8_16
  3534     0284  0875               	movf	?__Umul8_16+1,w
  3535     0285  1683               	bsf	3,5	;RP0=1, select bank1
  3536     0286  1303               	bcf	3,6	;RP1=0, select bank1
  3537     0287  00AC               	movwf	(___flmul@temp+1)^(0+128)
  3538     0288  0874               	movf	?__Umul8_16,w
  3539     0289  00AB               	movwf	___flmul@temp^(0+128)
  3540     028A                     l1786:
  3541     028A  082B               	movf	___flmul@temp^(0+128),w
  3542     028B  1283               	bcf	3,5	;RP0=0, select bank0
  3543     028C  1303               	bcf	3,6	;RP1=0, select bank0
  3544     028D  00E1               	movwf	??___flmul
  3545     028E  1683               	bsf	3,5	;RP0=1, select bank1
  3546     028F  1303               	bcf	3,6	;RP1=0, select bank1
  3547     0290  082C               	movf	(___flmul@temp+1)^(0+128),w
  3548     0291  1283               	bcf	3,5	;RP0=0, select bank0
  3549     0292  1303               	bcf	3,6	;RP1=0, select bank0
  3550     0293  00E2               	movwf	??___flmul+1
  3551     0294  01E3               	clrf	??___flmul+2
  3552     0295  01E4               	clrf	??___flmul+3
  3553     0296  0861               	movf	??___flmul,w
  3554     0297  1683               	bsf	3,5	;RP0=1, select bank1
  3555     0298  1303               	bcf	3,6	;RP1=0, select bank1
  3556     0299  07A1               	addwf	___flmul@grs^(0+128),f
  3557     029A  1283               	bcf	3,5	;RP0=0, select bank0
  3558     029B  1303               	bcf	3,6	;RP1=0, select bank0
  3559     029C  0862               	movf	??___flmul+1,w
  3560     029D  1103               	clrz
  3561     029E  1803               	skipnc
  3562     029F  3E01               	addlw	1
  3563     02A0  1903               	skipnz
  3564     02A1  2AA5               	goto	u2121
  3565     02A2  1683               	bsf	3,5	;RP0=1, select bank1
  3566     02A3  1303               	bcf	3,6	;RP1=0, select bank1
  3567     02A4  07A2               	addwf	(___flmul@grs+1)^(0+128),f
  3568     02A5                     u2121:
  3569     02A5  1283               	bcf	3,5	;RP0=0, select bank0
  3570     02A6  1303               	bcf	3,6	;RP1=0, select bank0
  3571     02A7  0863               	movf	??___flmul+2,w
  3572     02A8  1103               	clrz
  3573     02A9  1803               	skipnc
  3574     02AA  3E01               	addlw	1
  3575     02AB  1903               	skipnz
  3576     02AC  2AB0               	goto	u2122
  3577     02AD  1683               	bsf	3,5	;RP0=1, select bank1
  3578     02AE  1303               	bcf	3,6	;RP1=0, select bank1
  3579     02AF  07A3               	addwf	(___flmul@grs+2)^(0+128),f
  3580     02B0                     u2122:
  3581     02B0  1283               	bcf	3,5	;RP0=0, select bank0
  3582     02B1  1303               	bcf	3,6	;RP1=0, select bank0
  3583     02B2  0864               	movf	??___flmul+3,w
  3584     02B3  1103               	clrz
  3585     02B4  1803               	skipnc
  3586     02B5  3E01               	addlw	1
  3587     02B6  1903               	skipnz
  3588     02B7  2ABB               	goto	u2123
  3589     02B8  1683               	bsf	3,5	;RP0=1, select bank1
  3590     02B9  1303               	bcf	3,6	;RP1=0, select bank1
  3591     02BA  07A4               	addwf	(___flmul@grs+3)^(0+128),f
  3592     02BB                     u2123:
  3593     02BB  1283               	bcf	3,5	;RP0=0, select bank0
  3594     02BC  1303               	bcf	3,6	;RP1=0, select bank0
  3595     02BD  1683               	bsf	3,5	;RP0=1, select bank1
  3596     02BE  1303               	bcf	3,6	;RP1=0, select bank1
  3597     02BF                     l1788:
  3598     02BF  1283               	bcf	3,5	;RP0=0, select bank0
  3599     02C0  1303               	bcf	3,6	;RP1=0, select bank0
  3600     02C1  085A               	movf	___flmul@b+1,w
  3601     02C2  00F4               	movwf	__Umul8_16@multiplicand
  3602     02C3  085F               	movf	___flmul@a+2,w
  3603     02C4  120A  158A  23BC  120A  118A  	fcall	__Umul8_16
  3604     02C9  0875               	movf	?__Umul8_16+1,w
  3605     02CA  1683               	bsf	3,5	;RP0=1, select bank1
  3606     02CB  1303               	bcf	3,6	;RP1=0, select bank1
  3607     02CC  00AC               	movwf	(___flmul@temp+1)^(0+128)
  3608     02CD  0874               	movf	?__Umul8_16,w
  3609     02CE  00AB               	movwf	___flmul@temp^(0+128)
  3610     02CF  082B               	movf	___flmul@temp^(0+128),w
  3611     02D0  1283               	bcf	3,5	;RP0=0, select bank0
  3612     02D1  1303               	bcf	3,6	;RP1=0, select bank0
  3613     02D2  00E1               	movwf	??___flmul
  3614     02D3  1683               	bsf	3,5	;RP0=1, select bank1
  3615     02D4  1303               	bcf	3,6	;RP1=0, select bank1
  3616     02D5  082C               	movf	(___flmul@temp+1)^(0+128),w
  3617     02D6  1283               	bcf	3,5	;RP0=0, select bank0
  3618     02D7  1303               	bcf	3,6	;RP1=0, select bank0
  3619     02D8  00E2               	movwf	??___flmul+1
  3620     02D9  01E3               	clrf	??___flmul+2
  3621     02DA  01E4               	clrf	??___flmul+3
  3622     02DB  0861               	movf	??___flmul,w
  3623     02DC  1683               	bsf	3,5	;RP0=1, select bank1
  3624     02DD  1303               	bcf	3,6	;RP1=0, select bank1
  3625     02DE  07A7               	addwf	___flmul@prod^(0+128),f
  3626     02DF  1283               	bcf	3,5	;RP0=0, select bank0
  3627     02E0  1303               	bcf	3,6	;RP1=0, select bank0
  3628     02E1  0862               	movf	??___flmul+1,w
  3629     02E2  1103               	clrz
  3630     02E3  1803               	skipnc
  3631     02E4  3E01               	addlw	1
  3632     02E5  1903               	skipnz
  3633     02E6  2AEA               	goto	u2131
  3634     02E7  1683               	bsf	3,5	;RP0=1, select bank1
  3635     02E8  1303               	bcf	3,6	;RP1=0, select bank1
  3636     02E9  07A8               	addwf	(___flmul@prod+1)^(0+128),f
  3637     02EA                     u2131:
  3638     02EA  1283               	bcf	3,5	;RP0=0, select bank0
  3639     02EB  1303               	bcf	3,6	;RP1=0, select bank0
  3640     02EC  0863               	movf	??___flmul+2,w
  3641     02ED  1103               	clrz
  3642     02EE  1803               	skipnc
  3643     02EF  3E01               	addlw	1
  3644     02F0  1903               	skipnz
  3645     02F1  2AF5               	goto	u2132
  3646     02F2  1683               	bsf	3,5	;RP0=1, select bank1
  3647     02F3  1303               	bcf	3,6	;RP1=0, select bank1
  3648     02F4  07A9               	addwf	(___flmul@prod+2)^(0+128),f
  3649     02F5                     u2132:
  3650     02F5  1283               	bcf	3,5	;RP0=0, select bank0
  3651     02F6  1303               	bcf	3,6	;RP1=0, select bank0
  3652     02F7  0864               	movf	??___flmul+3,w
  3653     02F8  1103               	clrz
  3654     02F9  1803               	skipnc
  3655     02FA  3E01               	addlw	1
  3656     02FB  1903               	skipnz
  3657     02FC  2B00               	goto	u2133
  3658     02FD  1683               	bsf	3,5	;RP0=1, select bank1
  3659     02FE  1303               	bcf	3,6	;RP1=0, select bank1
  3660     02FF  07AA               	addwf	(___flmul@prod+3)^(0+128),f
  3661     0300                     u2133:
  3662     0300  1283               	bcf	3,5	;RP0=0, select bank0
  3663     0301  1303               	bcf	3,6	;RP1=0, select bank0
  3664     0302  1683               	bsf	3,5	;RP0=1, select bank1
  3665     0303  1303               	bcf	3,6	;RP1=0, select bank1
  3666     0304                     l1790:
  3667     0304  1283               	bcf	3,5	;RP0=0, select bank0
  3668     0305  1303               	bcf	3,6	;RP1=0, select bank0
  3669     0306  085B               	movf	___flmul@b+2,w
  3670     0307  00F4               	movwf	__Umul8_16@multiplicand
  3671     0308  085E               	movf	___flmul@a+1,w
  3672     0309  120A  158A  23BC  120A  118A  	fcall	__Umul8_16
  3673     030E  0875               	movf	?__Umul8_16+1,w
  3674     030F  1683               	bsf	3,5	;RP0=1, select bank1
  3675     0310  1303               	bcf	3,6	;RP1=0, select bank1
  3676     0311  00AC               	movwf	(___flmul@temp+1)^(0+128)
  3677     0312  0874               	movf	?__Umul8_16,w
  3678     0313  00AB               	movwf	___flmul@temp^(0+128)
  3679     0314                     l1792:
  3680     0314  082B               	movf	___flmul@temp^(0+128),w
  3681     0315  1283               	bcf	3,5	;RP0=0, select bank0
  3682     0316  1303               	bcf	3,6	;RP1=0, select bank0
  3683     0317  00E1               	movwf	??___flmul
  3684     0318  1683               	bsf	3,5	;RP0=1, select bank1
  3685     0319  1303               	bcf	3,6	;RP1=0, select bank1
  3686     031A  082C               	movf	(___flmul@temp+1)^(0+128),w
  3687     031B  1283               	bcf	3,5	;RP0=0, select bank0
  3688     031C  1303               	bcf	3,6	;RP1=0, select bank0
  3689     031D  00E2               	movwf	??___flmul+1
  3690     031E  01E3               	clrf	??___flmul+2
  3691     031F  01E4               	clrf	??___flmul+3
  3692     0320  0861               	movf	??___flmul,w
  3693     0321  1683               	bsf	3,5	;RP0=1, select bank1
  3694     0322  1303               	bcf	3,6	;RP1=0, select bank1
  3695     0323  07A7               	addwf	___flmul@prod^(0+128),f
  3696     0324  1283               	bcf	3,5	;RP0=0, select bank0
  3697     0325  1303               	bcf	3,6	;RP1=0, select bank0
  3698     0326  0862               	movf	??___flmul+1,w
  3699     0327  1103               	clrz
  3700     0328  1803               	skipnc
  3701     0329  3E01               	addlw	1
  3702     032A  1903               	skipnz
  3703     032B  2B2F               	goto	u2141
  3704     032C  1683               	bsf	3,5	;RP0=1, select bank1
  3705     032D  1303               	bcf	3,6	;RP1=0, select bank1
  3706     032E  07A8               	addwf	(___flmul@prod+1)^(0+128),f
  3707     032F                     u2141:
  3708     032F  1283               	bcf	3,5	;RP0=0, select bank0
  3709     0330  1303               	bcf	3,6	;RP1=0, select bank0
  3710     0331  0863               	movf	??___flmul+2,w
  3711     0332  1103               	clrz
  3712     0333  1803               	skipnc
  3713     0334  3E01               	addlw	1
  3714     0335  1903               	skipnz
  3715     0336  2B3A               	goto	u2142
  3716     0337  1683               	bsf	3,5	;RP0=1, select bank1
  3717     0338  1303               	bcf	3,6	;RP1=0, select bank1
  3718     0339  07A9               	addwf	(___flmul@prod+2)^(0+128),f
  3719     033A                     u2142:
  3720     033A  1283               	bcf	3,5	;RP0=0, select bank0
  3721     033B  1303               	bcf	3,6	;RP1=0, select bank0
  3722     033C  0864               	movf	??___flmul+3,w
  3723     033D  1103               	clrz
  3724     033E  1803               	skipnc
  3725     033F  3E01               	addlw	1
  3726     0340  1903               	skipnz
  3727     0341  2B45               	goto	u2143
  3728     0342  1683               	bsf	3,5	;RP0=1, select bank1
  3729     0343  1303               	bcf	3,6	;RP1=0, select bank1
  3730     0344  07AA               	addwf	(___flmul@prod+3)^(0+128),f
  3731     0345                     u2143:
  3732     0345  1283               	bcf	3,5	;RP0=0, select bank0
  3733     0346  1303               	bcf	3,6	;RP1=0, select bank0
  3734     0347  1683               	bsf	3,5	;RP0=1, select bank1
  3735     0348  1303               	bcf	3,6	;RP1=0, select bank1
  3736     0349  1283               	bcf	3,5	;RP0=0, select bank0
  3737     034A  1303               	bcf	3,6	;RP1=0, select bank0
  3738     034B  085B               	movf	___flmul@b+2,w
  3739     034C  00F4               	movwf	__Umul8_16@multiplicand
  3740     034D  085F               	movf	___flmul@a+2,w
  3741     034E  120A  158A  23BC  120A  118A  	fcall	__Umul8_16
  3742     0353  0875               	movf	?__Umul8_16+1,w
  3743     0354  1683               	bsf	3,5	;RP0=1, select bank1
  3744     0355  1303               	bcf	3,6	;RP1=0, select bank1
  3745     0356  00AC               	movwf	(___flmul@temp+1)^(0+128)
  3746     0357  0874               	movf	?__Umul8_16,w
  3747     0358  00AB               	movwf	___flmul@temp^(0+128)
  3748     0359                     l1794:
  3749     0359  082B               	movf	___flmul@temp^(0+128),w
  3750     035A  1283               	bcf	3,5	;RP0=0, select bank0
  3751     035B  1303               	bcf	3,6	;RP1=0, select bank0
  3752     035C  00E1               	movwf	??___flmul
  3753     035D  1683               	bsf	3,5	;RP0=1, select bank1
  3754     035E  1303               	bcf	3,6	;RP1=0, select bank1
  3755     035F  082C               	movf	(___flmul@temp+1)^(0+128),w
  3756     0360  1283               	bcf	3,5	;RP0=0, select bank0
  3757     0361  1303               	bcf	3,6	;RP1=0, select bank0
  3758     0362  00E2               	movwf	??___flmul+1
  3759     0363  01E3               	clrf	??___flmul+2
  3760     0364  01E4               	clrf	??___flmul+3
  3761     0365  3008               	movlw	8
  3762     0366                     u2155:
  3763     0366  1003               	clrc
  3764     0367  0DE1               	rlf	??___flmul,f
  3765     0368  0DE2               	rlf	??___flmul+1,f
  3766     0369  0DE3               	rlf	??___flmul+2,f
  3767     036A  0DE4               	rlf	??___flmul+3,f
  3768     036B                     u2150:
  3769     036B  3EFF               	addlw	-1
  3770     036C  1D03               	skipz
  3771     036D  2B66               	goto	u2155
  3772     036E  0861               	movf	??___flmul,w
  3773     036F  1683               	bsf	3,5	;RP0=1, select bank1
  3774     0370  1303               	bcf	3,6	;RP1=0, select bank1
  3775     0371  07A7               	addwf	___flmul@prod^(0+128),f
  3776     0372  1283               	bcf	3,5	;RP0=0, select bank0
  3777     0373  1303               	bcf	3,6	;RP1=0, select bank0
  3778     0374  0862               	movf	??___flmul+1,w
  3779     0375  1103               	clrz
  3780     0376  1803               	skipnc
  3781     0377  3E01               	addlw	1
  3782     0378  1903               	skipnz
  3783     0379  2B7D               	goto	u2161
  3784     037A  1683               	bsf	3,5	;RP0=1, select bank1
  3785     037B  1303               	bcf	3,6	;RP1=0, select bank1
  3786     037C  07A8               	addwf	(___flmul@prod+1)^(0+128),f
  3787     037D                     u2161:
  3788     037D  1283               	bcf	3,5	;RP0=0, select bank0
  3789     037E  1303               	bcf	3,6	;RP1=0, select bank0
  3790     037F  0863               	movf	??___flmul+2,w
  3791     0380  1103               	clrz
  3792     0381  1803               	skipnc
  3793     0382  3E01               	addlw	1
  3794     0383  1903               	skipnz
  3795     0384  2B88               	goto	u2162
  3796     0385  1683               	bsf	3,5	;RP0=1, select bank1
  3797     0386  1303               	bcf	3,6	;RP1=0, select bank1
  3798     0387  07A9               	addwf	(___flmul@prod+2)^(0+128),f
  3799     0388                     u2162:
  3800     0388  1283               	bcf	3,5	;RP0=0, select bank0
  3801     0389  1303               	bcf	3,6	;RP1=0, select bank0
  3802     038A  0864               	movf	??___flmul+3,w
  3803     038B  1103               	clrz
  3804     038C  1803               	skipnc
  3805     038D  3E01               	addlw	1
  3806     038E  1903               	skipnz
  3807     038F  2B93               	goto	u2163
  3808     0390  1683               	bsf	3,5	;RP0=1, select bank1
  3809     0391  1303               	bcf	3,6	;RP1=0, select bank1
  3810     0392  07AA               	addwf	(___flmul@prod+3)^(0+128),f
  3811     0393                     u2163:
  3812     0393  1283               	bcf	3,5	;RP0=0, select bank0
  3813     0394  1303               	bcf	3,6	;RP1=0, select bank0
  3814     0395  1683               	bsf	3,5	;RP0=1, select bank1
  3815     0396  1303               	bcf	3,6	;RP1=0, select bank1
  3816     0397                     l1796:
  3817     0397  0821               	movf	___flmul@grs^(0+128),w
  3818     0398  1283               	bcf	3,5	;RP0=0, select bank0
  3819     0399  1303               	bcf	3,6	;RP1=0, select bank0
  3820     039A  00E1               	movwf	??___flmul
  3821     039B  1683               	bsf	3,5	;RP0=1, select bank1
  3822     039C  1303               	bcf	3,6	;RP1=0, select bank1
  3823     039D  0822               	movf	(___flmul@grs+1)^(0+128),w
  3824     039E  1283               	bcf	3,5	;RP0=0, select bank0
  3825     039F  1303               	bcf	3,6	;RP1=0, select bank0
  3826     03A0  00E2               	movwf	??___flmul+1
  3827     03A1  1683               	bsf	3,5	;RP0=1, select bank1
  3828     03A2  1303               	bcf	3,6	;RP1=0, select bank1
  3829     03A3  0823               	movf	(___flmul@grs+2)^(0+128),w
  3830     03A4  1283               	bcf	3,5	;RP0=0, select bank0
  3831     03A5  1303               	bcf	3,6	;RP1=0, select bank0
  3832     03A6  00E3               	movwf	??___flmul+2
  3833     03A7  1683               	bsf	3,5	;RP0=1, select bank1
  3834     03A8  1303               	bcf	3,6	;RP1=0, select bank1
  3835     03A9  0824               	movf	(___flmul@grs+3)^(0+128),w
  3836     03AA  1283               	bcf	3,5	;RP0=0, select bank0
  3837     03AB  1303               	bcf	3,6	;RP1=0, select bank0
  3838     03AC  00E4               	movwf	??___flmul+3
  3839     03AD  3018               	movlw	24
  3840     03AE                     u2175:
  3841     03AE  1003               	clrc
  3842     03AF  0CE4               	rrf	??___flmul+3,f
  3843     03B0  0CE3               	rrf	??___flmul+2,f
  3844     03B1  0CE2               	rrf	??___flmul+1,f
  3845     03B2  0CE1               	rrf	??___flmul,f
  3846     03B3                     u2170:
  3847     03B3  3EFF               	addlw	-1
  3848     03B4  1D03               	skipz
  3849     03B5  2BAE               	goto	u2175
  3850     03B6  0861               	movf	??___flmul,w
  3851     03B7  1683               	bsf	3,5	;RP0=1, select bank1
  3852     03B8  1303               	bcf	3,6	;RP1=0, select bank1
  3853     03B9  07A7               	addwf	___flmul@prod^(0+128),f
  3854     03BA  1283               	bcf	3,5	;RP0=0, select bank0
  3855     03BB  1303               	bcf	3,6	;RP1=0, select bank0
  3856     03BC  0862               	movf	??___flmul+1,w
  3857     03BD  1103               	clrz
  3858     03BE  1803               	skipnc
  3859     03BF  3E01               	addlw	1
  3860     03C0  1903               	skipnz
  3861     03C1  2BC5               	goto	u2181
  3862     03C2  1683               	bsf	3,5	;RP0=1, select bank1
  3863     03C3  1303               	bcf	3,6	;RP1=0, select bank1
  3864     03C4  07A8               	addwf	(___flmul@prod+1)^(0+128),f
  3865     03C5                     u2181:
  3866     03C5  1283               	bcf	3,5	;RP0=0, select bank0
  3867     03C6  1303               	bcf	3,6	;RP1=0, select bank0
  3868     03C7  0863               	movf	??___flmul+2,w
  3869     03C8  1103               	clrz
  3870     03C9  1803               	skipnc
  3871     03CA  3E01               	addlw	1
  3872     03CB  1903               	skipnz
  3873     03CC  2BD0               	goto	u2182
  3874     03CD  1683               	bsf	3,5	;RP0=1, select bank1
  3875     03CE  1303               	bcf	3,6	;RP1=0, select bank1
  3876     03CF  07A9               	addwf	(___flmul@prod+2)^(0+128),f
  3877     03D0                     u2182:
  3878     03D0  1283               	bcf	3,5	;RP0=0, select bank0
  3879     03D1  1303               	bcf	3,6	;RP1=0, select bank0
  3880     03D2  0864               	movf	??___flmul+3,w
  3881     03D3  1103               	clrz
  3882     03D4  1803               	skipnc
  3883     03D5  3E01               	addlw	1
  3884     03D6  1903               	skipnz
  3885     03D7  2BDB               	goto	u2183
  3886     03D8  1683               	bsf	3,5	;RP0=1, select bank1
  3887     03D9  1303               	bcf	3,6	;RP1=0, select bank1
  3888     03DA  07AA               	addwf	(___flmul@prod+3)^(0+128),f
  3889     03DB                     u2183:
  3890     03DB  1283               	bcf	3,5	;RP0=0, select bank0
  3891     03DC  1303               	bcf	3,6	;RP1=0, select bank0
  3892     03DD  1683               	bsf	3,5	;RP0=1, select bank1
  3893     03DE  1303               	bcf	3,6	;RP1=0, select bank1
  3894     03DF                     l1798:
  3895     03DF  3008               	movlw	8
  3896     03E0  1283               	bcf	3,5	;RP0=0, select bank0
  3897     03E1  1303               	bcf	3,6	;RP1=0, select bank0
  3898     03E2  00E1               	movwf	??___flmul
  3899     03E3                     u2195:
  3900     03E3  1003               	clrc
  3901     03E4  1683               	bsf	3,5	;RP0=1, select bank1
  3902     03E5  1303               	bcf	3,6	;RP1=0, select bank1
  3903     03E6  0DA1               	rlf	___flmul@grs^(0+128),f
  3904     03E7  0DA2               	rlf	(___flmul@grs+1)^(0+128),f
  3905     03E8  0DA3               	rlf	(___flmul@grs+2)^(0+128),f
  3906     03E9  0DA4               	rlf	(___flmul@grs+3)^(0+128),f
  3907     03EA  1283               	bcf	3,5	;RP0=0, select bank0
  3908     03EB  1303               	bcf	3,6	;RP1=0, select bank0
  3909     03EC  0BE1               	decfsz	??___flmul,f
  3910     03ED  2BE3               	goto	u2195
  3911     03EE                     l1800:
  3912     03EE  1683               	bsf	3,5	;RP0=1, select bank1
  3913     03EF  1303               	bcf	3,6	;RP1=0, select bank1
  3914     03F0  0826               	movf	___flmul@bexp^(0+128),w
  3915     03F1  0725               	addwf	___flmul@aexp^(0+128),w
  3916     03F2  1283               	bcf	3,5	;RP0=0, select bank0
  3917     03F3  1303               	bcf	3,6	;RP1=0, select bank0
  3918     03F4  00E1               	movwf	??___flmul
  3919     03F5  01E2               	clrf	??___flmul+1
  3920     03F6  0DE2               	rlf	??___flmul+1,f
  3921     03F7  0861               	movf	??___flmul,w
  3922     03F8  3E82               	addlw	130
  3923     03F9  1683               	bsf	3,5	;RP0=1, select bank1
  3924     03FA  1303               	bcf	3,6	;RP1=0, select bank1
  3925     03FB  00AB               	movwf	___flmul@temp^(0+128)
  3926     03FC  1283               	bcf	3,5	;RP0=0, select bank0
  3927     03FD  1303               	bcf	3,6	;RP1=0, select bank0
  3928     03FE  0862               	movf	??___flmul+1,w
  3929     03FF  1803               	skipnc
  3930     0400  3E01               	addlw	1
  3931     0401  3EFF               	addlw	255
  3932     0402  1683               	bsf	3,5	;RP0=1, select bank1
  3933     0403  1303               	bcf	3,6	;RP1=0, select bank1
  3934     0404  00AC               	movwf	(___flmul@temp+1)^(0+128)
  3935     0405  2C33               	goto	l1812
  3936     0406                     l1802:
  3937     0406  3001               	movlw	1
  3938     0407  1283               	bcf	3,5	;RP0=0, select bank0
  3939     0408  1303               	bcf	3,6	;RP1=0, select bank0
  3940     0409  00E1               	movwf	??___flmul
  3941     040A                     u2205:
  3942     040A  1003               	clrc
  3943     040B  1683               	bsf	3,5	;RP0=1, select bank1
  3944     040C  1303               	bcf	3,6	;RP1=0, select bank1
  3945     040D  0DA7               	rlf	___flmul@prod^(0+128),f
  3946     040E  0DA8               	rlf	(___flmul@prod+1)^(0+128),f
  3947     040F  0DA9               	rlf	(___flmul@prod+2)^(0+128),f
  3948     0410  0DAA               	rlf	(___flmul@prod+3)^(0+128),f
  3949     0411  1283               	bcf	3,5	;RP0=0, select bank0
  3950     0412  1303               	bcf	3,6	;RP1=0, select bank0
  3951     0413  0BE1               	decfsz	??___flmul,f
  3952     0414  2C0A               	goto	u2205
  3953     0415                     l1804:
  3954     0415  1683               	bsf	3,5	;RP0=1, select bank1
  3955     0416  1303               	bcf	3,6	;RP1=0, select bank1
  3956     0417  1FA4               	btfss	(___flmul@grs+3)^(0+128),7
  3957     0418  2C1A               	goto	u2211
  3958     0419  2C1B               	goto	u2210
  3959     041A                     u2211:
  3960     041A  2C1C               	goto	l1808
  3961     041B                     u2210:
  3962     041B                     l1806:
  3963     041B  1427               	bsf	___flmul@prod^(0+128),0
  3964     041C                     l1808:
  3965     041C  3001               	movlw	1
  3966     041D  1283               	bcf	3,5	;RP0=0, select bank0
  3967     041E  1303               	bcf	3,6	;RP1=0, select bank0
  3968     041F  00E1               	movwf	??___flmul
  3969     0420                     u2225:
  3970     0420  1003               	clrc
  3971     0421  1683               	bsf	3,5	;RP0=1, select bank1
  3972     0422  1303               	bcf	3,6	;RP1=0, select bank1
  3973     0423  0DA1               	rlf	___flmul@grs^(0+128),f
  3974     0424  0DA2               	rlf	(___flmul@grs+1)^(0+128),f
  3975     0425  0DA3               	rlf	(___flmul@grs+2)^(0+128),f
  3976     0426  0DA4               	rlf	(___flmul@grs+3)^(0+128),f
  3977     0427  1283               	bcf	3,5	;RP0=0, select bank0
  3978     0428  1303               	bcf	3,6	;RP1=0, select bank0
  3979     0429  0BE1               	decfsz	??___flmul,f
  3980     042A  2C20               	goto	u2225
  3981     042B                     l1810:
  3982     042B  30FF               	movlw	255
  3983     042C  1683               	bsf	3,5	;RP0=1, select bank1
  3984     042D  1303               	bcf	3,6	;RP1=0, select bank1
  3985     042E  07AB               	addwf	___flmul@temp^(0+128),f
  3986     042F  1803               	skipnc
  3987     0430  0AAC               	incf	(___flmul@temp+1)^(0+128),f
  3988     0431  30FF               	movlw	255
  3989     0432  07AC               	addwf	(___flmul@temp+1)^(0+128),f
  3990     0433                     l1812:
  3991     0433  1FA9               	btfss	(___flmul@prod+2)^(0+128),7
  3992     0434  2C36               	goto	u2231
  3993     0435  2C37               	goto	u2230
  3994     0436                     u2231:
  3995     0436  2C06               	goto	l1802
  3996     0437                     u2230:
  3997     0437                     l1814:
  3998     0437  01A5               	clrf	___flmul@aexp^(0+128)
  3999     0438                     l1816:
  4000     0438  1FA4               	btfss	(___flmul@grs+3)^(0+128),7
  4001     0439  2C3B               	goto	u2241
  4002     043A  2C3C               	goto	u2240
  4003     043B                     u2241:
  4004     043B  2C6A               	goto	l1824
  4005     043C                     u2240:
  4006     043C                     l1818:
  4007     043C  30FF               	movlw	255
  4008     043D  0521               	andwf	___flmul@grs^(0+128),w
  4009     043E  1283               	bcf	3,5	;RP0=0, select bank0
  4010     043F  1303               	bcf	3,6	;RP1=0, select bank0
  4011     0440  00E1               	movwf	??___flmul
  4012     0441  30FF               	movlw	255
  4013     0442  1683               	bsf	3,5	;RP0=1, select bank1
  4014     0443  1303               	bcf	3,6	;RP1=0, select bank1
  4015     0444  0522               	andwf	(___flmul@grs+1)^(0+128),w
  4016     0445  1283               	bcf	3,5	;RP0=0, select bank0
  4017     0446  1303               	bcf	3,6	;RP1=0, select bank0
  4018     0447  00E2               	movwf	??___flmul+1
  4019     0448  30FF               	movlw	255
  4020     0449  1683               	bsf	3,5	;RP0=1, select bank1
  4021     044A  1303               	bcf	3,6	;RP1=0, select bank1
  4022     044B  0523               	andwf	(___flmul@grs+2)^(0+128),w
  4023     044C  1283               	bcf	3,5	;RP0=0, select bank0
  4024     044D  1303               	bcf	3,6	;RP1=0, select bank0
  4025     044E  00E3               	movwf	??___flmul+2
  4026     044F  307F               	movlw	127
  4027     0450  1683               	bsf	3,5	;RP0=1, select bank1
  4028     0451  1303               	bcf	3,6	;RP1=0, select bank1
  4029     0452  0524               	andwf	(___flmul@grs+3)^(0+128),w
  4030     0453  1283               	bcf	3,5	;RP0=0, select bank0
  4031     0454  1303               	bcf	3,6	;RP1=0, select bank0
  4032     0455  00E4               	movwf	??___flmul+3
  4033     0456  0864               	movf	??___flmul+3,w
  4034     0457  0463               	iorwf	??___flmul+2,w
  4035     0458  0462               	iorwf	??___flmul+1,w
  4036     0459  0461               	iorwf	??___flmul,w
  4037     045A  1903               	skipnz
  4038     045B  2C5D               	goto	u2251
  4039     045C  2C5E               	goto	u2250
  4040     045D                     u2251:
  4041     045D  2C63               	goto	l717
  4042     045E                     u2250:
  4043     045E                     l1820:
  4044     045E  1683               	bsf	3,5	;RP0=1, select bank1
  4045     045F  1303               	bcf	3,6	;RP1=0, select bank1
  4046     0460  01A5               	clrf	___flmul@aexp^(0+128)
  4047     0461  0AA5               	incf	___flmul@aexp^(0+128),f
  4048     0462  2C6A               	goto	l1824
  4049     0463                     l717:
  4050     0463  1683               	bsf	3,5	;RP0=1, select bank1
  4051     0464  1303               	bcf	3,6	;RP1=0, select bank1
  4052     0465  1C27               	btfss	___flmul@prod^(0+128),0
  4053     0466  2C68               	goto	u2261
  4054     0467  2C69               	goto	u2260
  4055     0468                     u2261:
  4056     0468  2C6A               	goto	l1824
  4057     0469                     u2260:
  4058     0469  2C5E               	goto	l1820
  4059     046A                     l1824:
  4060     046A  0825               	movf	___flmul@aexp^(0+128),w
  4061     046B  1903               	btfsc	3,2
  4062     046C  2C6E               	goto	u2271
  4063     046D  2C6F               	goto	u2270
  4064     046E                     u2271:
  4065     046E  2CBC               	goto	l1834
  4066     046F                     u2270:
  4067     046F                     l1826:
  4068     046F  3001               	movlw	1
  4069     0470  07A7               	addwf	___flmul@prod^(0+128),f
  4070     0471  3000               	movlw	0
  4071     0472  1803               	skipnc
  4072     0473  3001               	movlw	1
  4073     0474  07A8               	addwf	(___flmul@prod+1)^(0+128),f
  4074     0475  3000               	movlw	0
  4075     0476  1803               	skipnc
  4076     0477  3001               	movlw	1
  4077     0478  07A9               	addwf	(___flmul@prod+2)^(0+128),f
  4078     0479  3000               	movlw	0
  4079     047A  1803               	skipnc
  4080     047B  3001               	movlw	1
  4081     047C  07AA               	addwf	(___flmul@prod+3)^(0+128),f
  4082     047D                     l1828:
  4083     047D  1C2A               	btfss	(___flmul@prod+3)^(0+128),0
  4084     047E  2C80               	goto	u2281
  4085     047F  2C81               	goto	u2280
  4086     0480                     u2281:
  4087     0480  2CBC               	goto	l1834
  4088     0481                     u2280:
  4089     0481                     l1830:
  4090     0481  0827               	movf	___flmul@prod^(0+128),w
  4091     0482  1283               	bcf	3,5	;RP0=0, select bank0
  4092     0483  1303               	bcf	3,6	;RP1=0, select bank0
  4093     0484  00E1               	movwf	??___flmul
  4094     0485  1683               	bsf	3,5	;RP0=1, select bank1
  4095     0486  1303               	bcf	3,6	;RP1=0, select bank1
  4096     0487  0828               	movf	(___flmul@prod+1)^(0+128),w
  4097     0488  1283               	bcf	3,5	;RP0=0, select bank0
  4098     0489  1303               	bcf	3,6	;RP1=0, select bank0
  4099     048A  00E2               	movwf	??___flmul+1
  4100     048B  1683               	bsf	3,5	;RP0=1, select bank1
  4101     048C  1303               	bcf	3,6	;RP1=0, select bank1
  4102     048D  0829               	movf	(___flmul@prod+2)^(0+128),w
  4103     048E  1283               	bcf	3,5	;RP0=0, select bank0
  4104     048F  1303               	bcf	3,6	;RP1=0, select bank0
  4105     0490  00E3               	movwf	??___flmul+2
  4106     0491  1683               	bsf	3,5	;RP0=1, select bank1
  4107     0492  1303               	bcf	3,6	;RP1=0, select bank1
  4108     0493  082A               	movf	(___flmul@prod+3)^(0+128),w
  4109     0494  1283               	bcf	3,5	;RP0=0, select bank0
  4110     0495  1303               	bcf	3,6	;RP1=0, select bank0
  4111     0496  00E4               	movwf	??___flmul+3
  4112     0497  3001               	movlw	1
  4113     0498  00E5               	movwf	??___flmul+4
  4114     0499                     u2295:
  4115     0499  0D64               	rlf	??___flmul+3,w
  4116     049A  0CE4               	rrf	??___flmul+3,f
  4117     049B  0CE3               	rrf	??___flmul+2,f
  4118     049C  0CE2               	rrf	??___flmul+1,f
  4119     049D  0CE1               	rrf	??___flmul,f
  4120     049E                     u2290:
  4121     049E  0BE5               	decfsz	??___flmul+4,f
  4122     049F  2C99               	goto	u2295
  4123     04A0  0864               	movf	??___flmul+3,w
  4124     04A1  1683               	bsf	3,5	;RP0=1, select bank1
  4125     04A2  1303               	bcf	3,6	;RP1=0, select bank1
  4126     04A3  00AA               	movwf	(___flmul@prod+3)^(0+128)
  4127     04A4  1283               	bcf	3,5	;RP0=0, select bank0
  4128     04A5  1303               	bcf	3,6	;RP1=0, select bank0
  4129     04A6  0863               	movf	??___flmul+2,w
  4130     04A7  1683               	bsf	3,5	;RP0=1, select bank1
  4131     04A8  1303               	bcf	3,6	;RP1=0, select bank1
  4132     04A9  00A9               	movwf	(___flmul@prod+2)^(0+128)
  4133     04AA  1283               	bcf	3,5	;RP0=0, select bank0
  4134     04AB  1303               	bcf	3,6	;RP1=0, select bank0
  4135     04AC  0862               	movf	??___flmul+1,w
  4136     04AD  1683               	bsf	3,5	;RP0=1, select bank1
  4137     04AE  1303               	bcf	3,6	;RP1=0, select bank1
  4138     04AF  00A8               	movwf	(___flmul@prod+1)^(0+128)
  4139     04B0  1283               	bcf	3,5	;RP0=0, select bank0
  4140     04B1  1303               	bcf	3,6	;RP1=0, select bank0
  4141     04B2  0861               	movf	??___flmul,w
  4142     04B3  1683               	bsf	3,5	;RP0=1, select bank1
  4143     04B4  1303               	bcf	3,6	;RP1=0, select bank1
  4144     04B5  00A7               	movwf	___flmul@prod^(0+128)
  4145     04B6                     l1832:
  4146     04B6  3001               	movlw	1
  4147     04B7  07AB               	addwf	___flmul@temp^(0+128),f
  4148     04B8  1803               	skipnc
  4149     04B9  0AAC               	incf	(___flmul@temp+1)^(0+128),f
  4150     04BA  3000               	movlw	0
  4151     04BB  07AC               	addwf	(___flmul@temp+1)^(0+128),f
  4152     04BC                     l1834:
  4153     04BC  082C               	movf	(___flmul@temp+1)^(0+128),w
  4154     04BD  3A80               	xorlw	128
  4155     04BE  00FF               	movwf	btemp+1
  4156     04BF  3080               	movlw	128
  4157     04C0  027F               	subwf	btemp+1,w
  4158     04C1  1D03               	skipz
  4159     04C2  2CC5               	goto	u2305
  4160     04C3  30FF               	movlw	255
  4161     04C4  022B               	subwf	___flmul@temp^(0+128),w
  4162     04C5                     u2305:
  4163     04C5  1C03               	skipc
  4164     04C6  2CC8               	goto	u2301
  4165     04C7  2CC9               	goto	u2300
  4166     04C8                     u2301:
  4167     04C8  2CD4               	goto	l1838
  4168     04C9                     u2300:
  4169     04C9                     l1836:
  4170     04C9  307F               	movlw	127
  4171     04CA  1683               	bsf	3,5	;RP0=1, select bank1
  4172     04CB  1303               	bcf	3,6	;RP1=0, select bank1
  4173     04CC  00AA               	movwf	(___flmul@prod+3)^(0+128)
  4174     04CD  3080               	movlw	128
  4175     04CE  00A9               	movwf	(___flmul@prod+2)^(0+128)
  4176     04CF  3000               	movlw	0
  4177     04D0  00A8               	movwf	(___flmul@prod+1)^(0+128)
  4178     04D1  3000               	movlw	0
  4179     04D2  00A7               	movwf	___flmul@prod^(0+128)
  4180     04D3  2D09               	goto	l723
  4181     04D4                     l1838:
  4182     04D4  1683               	bsf	3,5	;RP0=1, select bank1
  4183     04D5  1303               	bcf	3,6	;RP1=0, select bank1
  4184     04D6  082C               	movf	(___flmul@temp+1)^(0+128),w
  4185     04D7  3A80               	xorlw	128
  4186     04D8  00FF               	movwf	btemp+1
  4187     04D9  3080               	movlw	128
  4188     04DA  027F               	subwf	btemp+1,w
  4189     04DB  1D03               	skipz
  4190     04DC  2CDF               	goto	u2315
  4191     04DD  3001               	movlw	1
  4192     04DE  022B               	subwf	___flmul@temp^(0+128),w
  4193     04DF                     u2315:
  4194     04DF  1803               	skipnc
  4195     04E0  2CE2               	goto	u2311
  4196     04E1  2CE3               	goto	u2310
  4197     04E2                     u2311:
  4198     04E2  2CEF               	goto	l1844
  4199     04E3                     u2310:
  4200     04E3                     l1840:
  4201     04E3  3000               	movlw	0
  4202     04E4  1683               	bsf	3,5	;RP0=1, select bank1
  4203     04E5  1303               	bcf	3,6	;RP1=0, select bank1
  4204     04E6  00AA               	movwf	(___flmul@prod+3)^(0+128)
  4205     04E7  3000               	movlw	0
  4206     04E8  00A9               	movwf	(___flmul@prod+2)^(0+128)
  4207     04E9  3000               	movlw	0
  4208     04EA  00A8               	movwf	(___flmul@prod+1)^(0+128)
  4209     04EB  3000               	movlw	0
  4210     04EC  00A7               	movwf	___flmul@prod^(0+128)
  4211     04ED                     l1842:
  4212     04ED  01A0               	clrf	___flmul@sign^(0+128)
  4213     04EE  2D09               	goto	l723
  4214     04EF                     l1844:
  4215     04EF  1683               	bsf	3,5	;RP0=1, select bank1
  4216     04F0  1303               	bcf	3,6	;RP1=0, select bank1
  4217     04F1  082B               	movf	___flmul@temp^(0+128),w
  4218     04F2  00A6               	movwf	___flmul@bexp^(0+128)
  4219     04F3  30FF               	movlw	255
  4220     04F4  05A7               	andwf	___flmul@prod^(0+128),f
  4221     04F5  30FF               	movlw	255
  4222     04F6  05A8               	andwf	(___flmul@prod+1)^(0+128),f
  4223     04F7  307F               	movlw	127
  4224     04F8  05A9               	andwf	(___flmul@prod+2)^(0+128),f
  4225     04F9  3000               	movlw	0
  4226     04FA  05AA               	andwf	(___flmul@prod+3)^(0+128),f
  4227     04FB                     l1846:
  4228     04FB  1C26               	btfss	___flmul@bexp^(0+128),0
  4229     04FC  2CFE               	goto	u2321
  4230     04FD  2CFF               	goto	u2320
  4231     04FE                     u2321:
  4232     04FE  2D00               	goto	l1850
  4233     04FF                     u2320:
  4234     04FF                     l1848:
  4235     04FF  17A9               	bsf	(___flmul@prod^(0+128)+2),7
  4236     0500                     l1850:
  4237     0500  0826               	movf	___flmul@bexp^(0+128),w
  4238     0501  1283               	bcf	3,5	;RP0=0, select bank0
  4239     0502  1303               	bcf	3,6	;RP1=0, select bank0
  4240     0503  00E1               	movwf	??___flmul
  4241     0504  1003               	clrc
  4242     0505  0C61               	rrf	??___flmul,w
  4243     0506  1683               	bsf	3,5	;RP0=1, select bank1
  4244     0507  1303               	bcf	3,6	;RP1=0, select bank1
  4245     0508  00AA               	movwf	(___flmul@prod^(0+128)+3)
  4246     0509                     l723:
  4247     0509  0820               	movf	___flmul@sign^(0+128),w
  4248     050A  1283               	bcf	3,5	;RP0=0, select bank0
  4249     050B  1303               	bcf	3,6	;RP1=0, select bank0
  4250     050C  00E1               	movwf	??___flmul
  4251     050D  0861               	movf	??___flmul,w
  4252     050E  1683               	bsf	3,5	;RP0=1, select bank1
  4253     050F  1303               	bcf	3,6	;RP1=0, select bank1
  4254     0510  04AA               	iorwf	(___flmul@prod^(0+128)+3),f
  4255     0511                     l1852:
  4256     0511  082A               	movf	(___flmul@prod+3)^(0+128),w
  4257     0512  1283               	bcf	3,5	;RP0=0, select bank0
  4258     0513  1303               	bcf	3,6	;RP1=0, select bank0
  4259     0514  00DC               	movwf	?___flmul+3
  4260     0515  1683               	bsf	3,5	;RP0=1, select bank1
  4261     0516  1303               	bcf	3,6	;RP1=0, select bank1
  4262     0517  0829               	movf	(___flmul@prod+2)^(0+128),w
  4263     0518  1283               	bcf	3,5	;RP0=0, select bank0
  4264     0519  1303               	bcf	3,6	;RP1=0, select bank0
  4265     051A  00DB               	movwf	?___flmul+2
  4266     051B  1683               	bsf	3,5	;RP0=1, select bank1
  4267     051C  1303               	bcf	3,6	;RP1=0, select bank1
  4268     051D  0828               	movf	(___flmul@prod+1)^(0+128),w
  4269     051E  1283               	bcf	3,5	;RP0=0, select bank0
  4270     051F  1303               	bcf	3,6	;RP1=0, select bank0
  4271     0520  00DA               	movwf	?___flmul+1
  4272     0521  1683               	bsf	3,5	;RP0=1, select bank1
  4273     0522  1303               	bcf	3,6	;RP1=0, select bank1
  4274     0523  0827               	movf	___flmul@prod^(0+128),w
  4275     0524  1283               	bcf	3,5	;RP0=0, select bank0
  4276     0525  1303               	bcf	3,6	;RP1=0, select bank0
  4277     0526  00D9               	movwf	?___flmul
  4278     0527                     l711:
  4279     0527  0008               	return
  4280     0528                     __end_of___flmul:
  4281                           
  4282                           	psect	text13
  4283     0BBC                     __ptext13:	
  4284 ;; *************** function __Umul8_16 *****************
  4285 ;; Defined at:
  4286 ;;		line 4 in file "C:\Program Files\Microchip\xc8\v2.40\pic\sources\c90\common\Umul8_16.c"
  4287 ;; Parameters:    Size  Location     Type
  4288 ;;  multiplier      1    wreg     unsigned char 
  4289 ;;  multiplicand    1    4[COMMON] unsigned char 
  4290 ;; Auto vars:     Size  Location     Type
  4291 ;;  multiplier      1    4[BANK0 ] unsigned char 
  4292 ;;  word_mpld       2    2[BANK0 ] unsigned int 
  4293 ;;  product         2    0[BANK0 ] unsigned int 
  4294 ;; Return value:  Size  Location     Type
  4295 ;;                  2    4[COMMON] unsigned int 
  4296 ;; Registers used:
  4297 ;;		wreg, status,2, status,0
  4298 ;; Tracked objects:
  4299 ;;		On entry : 0/0
  4300 ;;		On exit  : 0/0
  4301 ;;		Unchanged: 0/0
  4302 ;; Data sizes:     COMMON   BANK0   BANK1   BANK3   BANK2
  4303 ;;      Params:         2       0       0       0       0
  4304 ;;      Locals:         0       5       0       0       0
  4305 ;;      Temps:          2       0       0       0       0
  4306 ;;      Totals:         4       5       0       0       0
  4307 ;;Total ram usage:        9 bytes
  4308 ;; Hardware stack levels used: 1
  4309 ;; Hardware stack levels required when called: 1
  4310 ;; This function calls:
  4311 ;;		Nothing
  4312 ;; This function is called by:
  4313 ;;		___flmul
  4314 ;; This function uses a non-reentrant model
  4315 ;;
  4316                           
  4317     0BBC                     __Umul8_16:	
  4318                           ;psect for function __Umul8_16
  4319                           
  4320                           
  4321                           ;incstack = 0
  4322                           ; Regs used in __Umul8_16: [wreg+status,2+status,0]
  4323                           ;__Umul8_16@multiplier stored from wreg
  4324     0BBC  1283               	bcf	3,5	;RP0=0, select bank0
  4325     0BBD  1303               	bcf	3,6	;RP1=0, select bank0
  4326     0BBE  00A4               	movwf	__Umul8_16@multiplier
  4327     0BBF                     l1506:
  4328     0BBF  01A0               	clrf	__Umul8_16@product
  4329     0BC0  01A1               	clrf	__Umul8_16@product+1
  4330     0BC1                     l1508:
  4331     0BC1  0874               	movf	__Umul8_16@multiplicand,w
  4332     0BC2  00F6               	movwf	??__Umul8_16
  4333     0BC3  01F7               	clrf	??__Umul8_16+1
  4334     0BC4  0876               	movf	??__Umul8_16,w
  4335     0BC5  00A2               	movwf	__Umul8_16@word_mpld
  4336     0BC6  0877               	movf	??__Umul8_16+1,w
  4337     0BC7  00A3               	movwf	__Umul8_16@word_mpld+1
  4338     0BC8                     l1510:
  4339     0BC8  1C24               	btfss	__Umul8_16@multiplier,0
  4340     0BC9  2BCB               	goto	u1531
  4341     0BCA  2BCC               	goto	u1530
  4342     0BCB                     u1531:
  4343     0BCB  2BD2               	goto	l730
  4344     0BCC                     u1530:
  4345     0BCC                     l1512:
  4346     0BCC  0822               	movf	__Umul8_16@word_mpld,w
  4347     0BCD  07A0               	addwf	__Umul8_16@product,f
  4348     0BCE  1803               	skipnc
  4349     0BCF  0AA1               	incf	__Umul8_16@product+1,f
  4350     0BD0  0823               	movf	__Umul8_16@word_mpld+1,w
  4351     0BD1  07A1               	addwf	__Umul8_16@product+1,f
  4352     0BD2                     l730:
  4353     0BD2  3001               	movlw	1
  4354     0BD3                     u1545:
  4355     0BD3  1003               	clrc
  4356     0BD4  0DA2               	rlf	__Umul8_16@word_mpld,f
  4357     0BD5  0DA3               	rlf	__Umul8_16@word_mpld+1,f
  4358     0BD6  3EFF               	addlw	-1
  4359     0BD7  1D03               	skipz
  4360     0BD8  2BD3               	goto	u1545
  4361     0BD9  1003               	clrc
  4362     0BDA  0CA4               	rrf	__Umul8_16@multiplier,f
  4363     0BDB                     l1514:
  4364     0BDB  0824               	movf	__Umul8_16@multiplier,w
  4365     0BDC  1D03               	btfss	3,2
  4366     0BDD  2BDF               	goto	u1551
  4367     0BDE  2BE0               	goto	u1550
  4368     0BDF                     u1551:
  4369     0BDF  2BC8               	goto	l1510
  4370     0BE0                     u1550:
  4371     0BE0                     l1516:
  4372     0BE0  0821               	movf	__Umul8_16@product+1,w
  4373     0BE1  00F5               	movwf	?__Umul8_16+1
  4374     0BE2  0820               	movf	__Umul8_16@product,w
  4375     0BE3  00F4               	movwf	?__Umul8_16
  4376     0BE4                     l732:
  4377     0BE4  0008               	return
  4378     0BE5                     __end_of__Umul8_16:
  4379                           
  4380                           	psect	text14
  4381     0528                     __ptext14:	
  4382 ;; *************** function ___fldiv *****************
  4383 ;; Defined at:
  4384 ;;		line 8 in file "C:\Program Files\Microchip\xc8\v2.40\pic\sources\c90\common\sprcdiv.c"
  4385 ;; Parameters:    Size  Location     Type
  4386 ;;  a               4   31[BANK0 ] unsigned int 
  4387 ;;  b               4   35[BANK0 ] unsigned int 
  4388 ;; Auto vars:     Size  Location     Type
  4389 ;;  grs             4   51[BANK0 ] unsigned long 
  4390 ;;  rem             4   44[BANK0 ] unsigned long 
  4391 ;;  new_exp         2   49[BANK0 ] int 
  4392 ;;  aexp            1   56[BANK0 ] unsigned char 
  4393 ;;  bexp            1   55[BANK0 ] unsigned char 
  4394 ;;  sign            1   48[BANK0 ] unsigned char 
  4395 ;; Return value:  Size  Location     Type
  4396 ;;                  4   31[BANK0 ] unsigned char 
  4397 ;; Registers used:
  4398 ;;		wreg, status,2, status,0, btemp+1
  4399 ;; Tracked objects:
  4400 ;;		On entry : 0/0
  4401 ;;		On exit  : 0/0
  4402 ;;		Unchanged: 0/0
  4403 ;; Data sizes:     COMMON   BANK0   BANK1   BANK3   BANK2
  4404 ;;      Params:         0       8       0       0       0
  4405 ;;      Locals:         0      13       0       0       0
  4406 ;;      Temps:          0       5       0       0       0
  4407 ;;      Totals:         0      26       0       0       0
  4408 ;;Total ram usage:       26 bytes
  4409 ;; Hardware stack levels used: 1
  4410 ;; Hardware stack levels required when called: 1
  4411 ;; This function calls:
  4412 ;;		Nothing
  4413 ;; This function is called by:
  4414 ;;		_applyPWMDutyCycle
  4415 ;; This function uses a non-reentrant model
  4416 ;;
  4417                           
  4418     0528                     ___fldiv:	
  4419                           ;psect for function ___fldiv
  4420                           
  4421     0528                     l1574:	
  4422                           ;incstack = 0
  4423                           ; Regs used in ___fldiv: [wreg+status,2+status,0+btemp+1]
  4424                           
  4425     0528  1283               	bcf	3,5	;RP0=0, select bank0
  4426     0529  1303               	bcf	3,6	;RP1=0, select bank0
  4427     052A  0846               	movf	___fldiv@b+3,w
  4428     052B  3980               	andlw	128
  4429     052C  00D0               	movwf	___fldiv@sign
  4430     052D                     l1576:
  4431     052D  0846               	movf	___fldiv@b+3,w
  4432     052E  00C7               	movwf	??___fldiv
  4433     052F  0747               	addwf	??___fldiv,w
  4434     0530  00D7               	movwf	___fldiv@bexp
  4435     0531                     l1578:
  4436     0531  1FC5               	btfss	___fldiv@b+2,7
  4437     0532  2D34               	goto	u1671
  4438     0533  2D35               	goto	u1670
  4439     0534                     u1671:
  4440     0534  2D36               	goto	l1582
  4441     0535                     u1670:
  4442     0535                     l1580:
  4443     0535  1457               	bsf	___fldiv@bexp,0
  4444     0536                     l1582:
  4445     0536  0857               	movf	___fldiv@bexp,w
  4446     0537  1903               	btfsc	3,2
  4447     0538  2D3A               	goto	u1681
  4448     0539  2D3B               	goto	u1680
  4449     053A                     u1681:
  4450     053A  2D4B               	goto	l1592
  4451     053B                     u1680:
  4452     053B                     l1584:
  4453     053B  0A57               	incf	___fldiv@bexp,w
  4454     053C  1D03               	btfss	3,2
  4455     053D  2D3F               	goto	u1691
  4456     053E  2D40               	goto	u1690
  4457     053F                     u1691:
  4458     053F  2D48               	goto	l1588
  4459     0540                     u1690:
  4460     0540                     l1586:
  4461     0540  3000               	movlw	0
  4462     0541  00C6               	movwf	___fldiv@b+3
  4463     0542  3000               	movlw	0
  4464     0543  00C5               	movwf	___fldiv@b+2
  4465     0544  3000               	movlw	0
  4466     0545  00C4               	movwf	___fldiv@b+1
  4467     0546  3000               	movlw	0
  4468     0547  00C3               	movwf	___fldiv@b
  4469     0548                     l1588:
  4470     0548  17C5               	bsf	___fldiv@b+2,7
  4471     0549                     l1590:
  4472     0549  01C6               	clrf	___fldiv@b+3
  4473     054A  2D53               	goto	l1594
  4474     054B                     l1592:
  4475     054B  3000               	movlw	0
  4476     054C  00C6               	movwf	___fldiv@b+3
  4477     054D  3000               	movlw	0
  4478     054E  00C5               	movwf	___fldiv@b+2
  4479     054F  3000               	movlw	0
  4480     0550  00C4               	movwf	___fldiv@b+1
  4481     0551  3000               	movlw	0
  4482     0552  00C3               	movwf	___fldiv@b
  4483     0553                     l1594:
  4484     0553  0842               	movf	___fldiv@a+3,w
  4485     0554  3980               	andlw	128
  4486     0555  00C7               	movwf	??___fldiv
  4487     0556  0847               	movf	??___fldiv,w
  4488     0557  06D0               	xorwf	___fldiv@sign,f
  4489     0558                     l1596:
  4490     0558  0842               	movf	___fldiv@a+3,w
  4491     0559  00C7               	movwf	??___fldiv
  4492     055A  0747               	addwf	??___fldiv,w
  4493     055B  00D8               	movwf	___fldiv@aexp
  4494     055C                     l1598:
  4495     055C  1FC1               	btfss	___fldiv@a+2,7
  4496     055D  2D5F               	goto	u1701
  4497     055E  2D60               	goto	u1700
  4498     055F                     u1701:
  4499     055F  2D61               	goto	l1602
  4500     0560                     u1700:
  4501     0560                     l1600:
  4502     0560  1458               	bsf	___fldiv@aexp,0
  4503     0561                     l1602:
  4504     0561  0858               	movf	___fldiv@aexp,w
  4505     0562  1903               	btfsc	3,2
  4506     0563  2D65               	goto	u1711
  4507     0564  2D66               	goto	u1710
  4508     0565                     u1711:
  4509     0565  2D76               	goto	l1612
  4510     0566                     u1710:
  4511     0566                     l1604:
  4512     0566  0A58               	incf	___fldiv@aexp,w
  4513     0567  1D03               	btfss	3,2
  4514     0568  2D6A               	goto	u1721
  4515     0569  2D6B               	goto	u1720
  4516     056A                     u1721:
  4517     056A  2D73               	goto	l1608
  4518     056B                     u1720:
  4519     056B                     l1606:
  4520     056B  3000               	movlw	0
  4521     056C  00C2               	movwf	___fldiv@a+3
  4522     056D  3000               	movlw	0
  4523     056E  00C1               	movwf	___fldiv@a+2
  4524     056F  3000               	movlw	0
  4525     0570  00C0               	movwf	___fldiv@a+1
  4526     0571  3000               	movlw	0
  4527     0572  00BF               	movwf	___fldiv@a
  4528     0573                     l1608:
  4529     0573  17C1               	bsf	___fldiv@a+2,7
  4530     0574                     l1610:
  4531     0574  01C2               	clrf	___fldiv@a+3
  4532     0575  2D7E               	goto	l671
  4533     0576                     l1612:
  4534     0576  3000               	movlw	0
  4535     0577  00C2               	movwf	___fldiv@a+3
  4536     0578  3000               	movlw	0
  4537     0579  00C1               	movwf	___fldiv@a+2
  4538     057A  3000               	movlw	0
  4539     057B  00C0               	movwf	___fldiv@a+1
  4540     057C  3000               	movlw	0
  4541     057D  00BF               	movwf	___fldiv@a
  4542     057E                     l671:
  4543     057E  0842               	movf	___fldiv@a+3,w
  4544     057F  0441               	iorwf	___fldiv@a+2,w
  4545     0580  0440               	iorwf	___fldiv@a+1,w
  4546     0581  043F               	iorwf	___fldiv@a,w
  4547     0582  1D03               	skipz
  4548     0583  2D85               	goto	u1731
  4549     0584  2D86               	goto	u1730
  4550     0585                     u1731:
  4551     0585  2D9F               	goto	l1622
  4552     0586                     u1730:
  4553     0586                     l1614:
  4554     0586  3000               	movlw	0
  4555     0587  00C6               	movwf	___fldiv@b+3
  4556     0588  3000               	movlw	0
  4557     0589  00C5               	movwf	___fldiv@b+2
  4558     058A  3000               	movlw	0
  4559     058B  00C4               	movwf	___fldiv@b+1
  4560     058C  3000               	movlw	0
  4561     058D  00C3               	movwf	___fldiv@b
  4562     058E  3080               	movlw	128
  4563     058F  04C5               	iorwf	___fldiv@b+2,f
  4564     0590  307F               	movlw	127
  4565     0591  04C6               	iorwf	___fldiv@b+3,f
  4566     0592                     l1616:
  4567     0592  0850               	movf	___fldiv@sign,w
  4568     0593  00C7               	movwf	??___fldiv
  4569     0594  0847               	movf	??___fldiv,w
  4570     0595  04C6               	iorwf	___fldiv@b+3,f
  4571     0596                     l1618:
  4572     0596  0846               	movf	___fldiv@b+3,w
  4573     0597  00C2               	movwf	?___fldiv+3
  4574     0598  0845               	movf	___fldiv@b+2,w
  4575     0599  00C1               	movwf	?___fldiv+2
  4576     059A  0844               	movf	___fldiv@b+1,w
  4577     059B  00C0               	movwf	?___fldiv+1
  4578     059C  0843               	movf	___fldiv@b,w
  4579     059D  00BF               	movwf	?___fldiv
  4580     059E  2EFA               	goto	l673
  4581     059F                     l1622:
  4582     059F  0857               	movf	___fldiv@bexp,w
  4583     05A0  1D03               	btfss	3,2
  4584     05A1  2DA3               	goto	u1741
  4585     05A2  2DA4               	goto	u1740
  4586     05A3                     u1741:
  4587     05A3  2DAD               	goto	l1628
  4588     05A4                     u1740:
  4589     05A4                     l1624:
  4590     05A4  3000               	movlw	0
  4591     05A5  00C2               	movwf	?___fldiv+3
  4592     05A6  3000               	movlw	0
  4593     05A7  00C1               	movwf	?___fldiv+2
  4594     05A8  3000               	movlw	0
  4595     05A9  00C0               	movwf	?___fldiv+1
  4596     05AA  3000               	movlw	0
  4597     05AB  00BF               	movwf	?___fldiv
  4598     05AC  2EFA               	goto	l673
  4599     05AD                     l1628:
  4600     05AD  0857               	movf	___fldiv@bexp,w
  4601     05AE  00C7               	movwf	??___fldiv
  4602     05AF  01C8               	clrf	??___fldiv+1
  4603     05B0  0848               	movf	??___fldiv+1,w
  4604     05B1  00CA               	movwf	??___fldiv+3
  4605     05B2  0858               	movf	___fldiv@aexp,w
  4606     05B3  0247               	subwf	??___fldiv,w
  4607     05B4  00C9               	movwf	??___fldiv+2
  4608     05B5  1C03               	skipc
  4609     05B6  03CA               	decf	??___fldiv+3,f
  4610     05B7  0849               	movf	??___fldiv+2,w
  4611     05B8  3E7F               	addlw	127
  4612     05B9  00D1               	movwf	___fldiv@new_exp
  4613     05BA  084A               	movf	??___fldiv+3,w
  4614     05BB  1803               	skipnc
  4615     05BC  3E01               	addlw	1
  4616     05BD  3E00               	addlw	0
  4617     05BE  00D2               	movwf	___fldiv@new_exp+1
  4618     05BF                     l1630:
  4619     05BF  0846               	movf	___fldiv@b+3,w
  4620     05C0  00CF               	movwf	___fldiv@rem+3
  4621     05C1  0845               	movf	___fldiv@b+2,w
  4622     05C2  00CE               	movwf	___fldiv@rem+2
  4623     05C3  0844               	movf	___fldiv@b+1,w
  4624     05C4  00CD               	movwf	___fldiv@rem+1
  4625     05C5  0843               	movf	___fldiv@b,w
  4626     05C6  00CC               	movwf	___fldiv@rem
  4627     05C7                     l1632:
  4628     05C7  3000               	movlw	0
  4629     05C8  00C6               	movwf	___fldiv@b+3
  4630     05C9  3000               	movlw	0
  4631     05CA  00C5               	movwf	___fldiv@b+2
  4632     05CB  3000               	movlw	0
  4633     05CC  00C4               	movwf	___fldiv@b+1
  4634     05CD  3000               	movlw	0
  4635     05CE  00C3               	movwf	___fldiv@b
  4636     05CF                     l1634:
  4637     05CF  3000               	movlw	0
  4638     05D0  00D6               	movwf	___fldiv@grs+3
  4639     05D1  3000               	movlw	0
  4640     05D2  00D5               	movwf	___fldiv@grs+2
  4641     05D3  3000               	movlw	0
  4642     05D4  00D4               	movwf	___fldiv@grs+1
  4643     05D5  3000               	movlw	0
  4644     05D6  00D3               	movwf	___fldiv@grs
  4645     05D7                     l1636:
  4646     05D7  01D8               	clrf	___fldiv@aexp
  4647     05D8  2E23               	goto	l1656
  4648     05D9                     l1638:
  4649     05D9  0858               	movf	___fldiv@aexp,w
  4650     05DA  1903               	btfsc	3,2
  4651     05DB  2DDD               	goto	u1751
  4652     05DC  2DDE               	goto	u1750
  4653     05DD                     u1751:
  4654     05DD  2DFE               	goto	l1648
  4655     05DE                     u1750:
  4656     05DE                     l1640:
  4657     05DE  3001               	movlw	1
  4658     05DF  00C7               	movwf	??___fldiv
  4659     05E0                     u1765:
  4660     05E0  1003               	clrc
  4661     05E1  0DCC               	rlf	___fldiv@rem,f
  4662     05E2  0DCD               	rlf	___fldiv@rem+1,f
  4663     05E3  0DCE               	rlf	___fldiv@rem+2,f
  4664     05E4  0DCF               	rlf	___fldiv@rem+3,f
  4665     05E5  0BC7               	decfsz	??___fldiv,f
  4666     05E6  2DE0               	goto	u1765
  4667     05E7  3001               	movlw	1
  4668     05E8  00C7               	movwf	??___fldiv
  4669     05E9                     u1775:
  4670     05E9  1003               	clrc
  4671     05EA  0DC3               	rlf	___fldiv@b,f
  4672     05EB  0DC4               	rlf	___fldiv@b+1,f
  4673     05EC  0DC5               	rlf	___fldiv@b+2,f
  4674     05ED  0DC6               	rlf	___fldiv@b+3,f
  4675     05EE  0BC7               	decfsz	??___fldiv,f
  4676     05EF  2DE9               	goto	u1775
  4677     05F0                     l1642:
  4678     05F0  1FD6               	btfss	___fldiv@grs+3,7
  4679     05F1  2DF3               	goto	u1781
  4680     05F2  2DF4               	goto	u1780
  4681     05F3                     u1781:
  4682     05F3  2DF5               	goto	l1646
  4683     05F4                     u1780:
  4684     05F4                     l1644:
  4685     05F4  1443               	bsf	___fldiv@b,0
  4686     05F5                     l1646:
  4687     05F5  3001               	movlw	1
  4688     05F6  00C7               	movwf	??___fldiv
  4689     05F7                     u1795:
  4690     05F7  1003               	clrc
  4691     05F8  0DD3               	rlf	___fldiv@grs,f
  4692     05F9  0DD4               	rlf	___fldiv@grs+1,f
  4693     05FA  0DD5               	rlf	___fldiv@grs+2,f
  4694     05FB  0DD6               	rlf	___fldiv@grs+3,f
  4695     05FC  0BC7               	decfsz	??___fldiv,f
  4696     05FD  2DF7               	goto	u1795
  4697     05FE                     l1648:
  4698     05FE  0842               	movf	___fldiv@a+3,w
  4699     05FF  024F               	subwf	___fldiv@rem+3,w
  4700     0600  1D03               	skipz
  4701     0601  2E0C               	goto	u1805
  4702     0602  0841               	movf	___fldiv@a+2,w
  4703     0603  024E               	subwf	___fldiv@rem+2,w
  4704     0604  1D03               	skipz
  4705     0605  2E0C               	goto	u1805
  4706     0606  0840               	movf	___fldiv@a+1,w
  4707     0607  024D               	subwf	___fldiv@rem+1,w
  4708     0608  1D03               	skipz
  4709     0609  2E0C               	goto	u1805
  4710     060A  083F               	movf	___fldiv@a,w
  4711     060B  024C               	subwf	___fldiv@rem,w
  4712     060C                     u1805:
  4713     060C  1C03               	skipc
  4714     060D  2E0F               	goto	u1801
  4715     060E  2E10               	goto	u1800
  4716     060F                     u1801:
  4717     060F  2E1F               	goto	l1654
  4718     0610                     u1800:
  4719     0610                     l1650:
  4720     0610  1756               	bsf	___fldiv@grs+3,6
  4721     0611                     l1652:
  4722     0611  083F               	movf	___fldiv@a,w
  4723     0612  02CC               	subwf	___fldiv@rem,f
  4724     0613  0840               	movf	___fldiv@a+1,w
  4725     0614  1C03               	skipc
  4726     0615  0F40               	incfsz	___fldiv@a+1,w
  4727     0616  02CD               	subwf	___fldiv@rem+1,f
  4728     0617  0841               	movf	___fldiv@a+2,w
  4729     0618  1C03               	skipc
  4730     0619  0F41               	incfsz	___fldiv@a+2,w
  4731     061A  02CE               	subwf	___fldiv@rem+2,f
  4732     061B  0842               	movf	___fldiv@a+3,w
  4733     061C  1C03               	skipc
  4734     061D  0F42               	incfsz	___fldiv@a+3,w
  4735     061E  02CF               	subwf	___fldiv@rem+3,f
  4736     061F                     l1654:
  4737     061F  3001               	movlw	1
  4738     0620  00C7               	movwf	??___fldiv
  4739     0621  0847               	movf	??___fldiv,w
  4740     0622  07D8               	addwf	___fldiv@aexp,f
  4741     0623                     l1656:
  4742     0623  301A               	movlw	26
  4743     0624  0258               	subwf	___fldiv@aexp,w
  4744     0625  1C03               	skipc
  4745     0626  2E28               	goto	u1811
  4746     0627  2E29               	goto	u1810
  4747     0628                     u1811:
  4748     0628  2DD9               	goto	l1638
  4749     0629                     u1810:
  4750     0629                     l1658:
  4751     0629  084F               	movf	___fldiv@rem+3,w
  4752     062A  044E               	iorwf	___fldiv@rem+2,w
  4753     062B  044D               	iorwf	___fldiv@rem+1,w
  4754     062C  044C               	iorwf	___fldiv@rem,w
  4755     062D  1903               	skipnz
  4756     062E  2E30               	goto	u1821
  4757     062F  2E31               	goto	u1820
  4758     0630                     u1821:
  4759     0630  2E50               	goto	l1672
  4760     0631                     u1820:
  4761     0631                     l1660:
  4762     0631  1453               	bsf	___fldiv@grs,0
  4763     0632  2E50               	goto	l1672
  4764     0633                     l1662:
  4765     0633  3001               	movlw	1
  4766     0634  00C7               	movwf	??___fldiv
  4767     0635                     u1835:
  4768     0635  1003               	clrc
  4769     0636  0DC3               	rlf	___fldiv@b,f
  4770     0637  0DC4               	rlf	___fldiv@b+1,f
  4771     0638  0DC5               	rlf	___fldiv@b+2,f
  4772     0639  0DC6               	rlf	___fldiv@b+3,f
  4773     063A  0BC7               	decfsz	??___fldiv,f
  4774     063B  2E35               	goto	u1835
  4775     063C                     l1664:
  4776     063C  1FD6               	btfss	___fldiv@grs+3,7
  4777     063D  2E3F               	goto	u1841
  4778     063E  2E40               	goto	u1840
  4779     063F                     u1841:
  4780     063F  2E41               	goto	l1668
  4781     0640                     u1840:
  4782     0640                     l1666:
  4783     0640  1443               	bsf	___fldiv@b,0
  4784     0641                     l1668:
  4785     0641  3001               	movlw	1
  4786     0642  00C7               	movwf	??___fldiv
  4787     0643                     u1855:
  4788     0643  1003               	clrc
  4789     0644  0DD3               	rlf	___fldiv@grs,f
  4790     0645  0DD4               	rlf	___fldiv@grs+1,f
  4791     0646  0DD5               	rlf	___fldiv@grs+2,f
  4792     0647  0DD6               	rlf	___fldiv@grs+3,f
  4793     0648  0BC7               	decfsz	??___fldiv,f
  4794     0649  2E43               	goto	u1855
  4795     064A                     l1670:
  4796     064A  30FF               	movlw	255
  4797     064B  07D1               	addwf	___fldiv@new_exp,f
  4798     064C  1803               	skipnc
  4799     064D  0AD2               	incf	___fldiv@new_exp+1,f
  4800     064E  30FF               	movlw	255
  4801     064F  07D2               	addwf	___fldiv@new_exp+1,f
  4802     0650                     l1672:
  4803     0650  1FC5               	btfss	___fldiv@b+2,7
  4804     0651  2E53               	goto	u1861
  4805     0652  2E54               	goto	u1860
  4806     0653                     u1861:
  4807     0653  2E33               	goto	l1662
  4808     0654                     u1860:
  4809     0654                     l1674:
  4810     0654  01D8               	clrf	___fldiv@aexp
  4811     0655                     l1676:
  4812     0655  1FD6               	btfss	___fldiv@grs+3,7
  4813     0656  2E58               	goto	u1871
  4814     0657  2E59               	goto	u1870
  4815     0658                     u1871:
  4816     0658  2E75               	goto	l1684
  4817     0659                     u1870:
  4818     0659                     l1678:
  4819     0659  30FF               	movlw	255
  4820     065A  0553               	andwf	___fldiv@grs,w
  4821     065B  00C7               	movwf	??___fldiv
  4822     065C  30FF               	movlw	255
  4823     065D  0554               	andwf	___fldiv@grs+1,w
  4824     065E  00C8               	movwf	??___fldiv+1
  4825     065F  30FF               	movlw	255
  4826     0660  0555               	andwf	___fldiv@grs+2,w
  4827     0661  00C9               	movwf	??___fldiv+2
  4828     0662  307F               	movlw	127
  4829     0663  0556               	andwf	___fldiv@grs+3,w
  4830     0664  00CA               	movwf	??___fldiv+3
  4831     0665  084A               	movf	??___fldiv+3,w
  4832     0666  0449               	iorwf	??___fldiv+2,w
  4833     0667  0448               	iorwf	??___fldiv+1,w
  4834     0668  0447               	iorwf	??___fldiv,w
  4835     0669  1903               	skipnz
  4836     066A  2E6C               	goto	u1881
  4837     066B  2E6D               	goto	u1880
  4838     066C                     u1881:
  4839     066C  2E70               	goto	l687
  4840     066D                     u1880:
  4841     066D                     l1680:
  4842     066D  01D8               	clrf	___fldiv@aexp
  4843     066E  0AD8               	incf	___fldiv@aexp,f
  4844     066F  2E75               	goto	l1684
  4845     0670                     l687:
  4846     0670  1C43               	btfss	___fldiv@b,0
  4847     0671  2E73               	goto	u1891
  4848     0672  2E74               	goto	u1890
  4849     0673                     u1891:
  4850     0673  2E75               	goto	l1684
  4851     0674                     u1890:
  4852     0674  2E6D               	goto	l1680
  4853     0675                     l1684:
  4854     0675  0858               	movf	___fldiv@aexp,w
  4855     0676  1903               	btfsc	3,2
  4856     0677  2E79               	goto	u1901
  4857     0678  2E7A               	goto	u1900
  4858     0679                     u1901:
  4859     0679  2EAB               	goto	l1694
  4860     067A                     u1900:
  4861     067A                     l1686:
  4862     067A  3001               	movlw	1
  4863     067B  07C3               	addwf	___fldiv@b,f
  4864     067C  3000               	movlw	0
  4865     067D  1803               	skipnc
  4866     067E  3001               	movlw	1
  4867     067F  07C4               	addwf	___fldiv@b+1,f
  4868     0680  3000               	movlw	0
  4869     0681  1803               	skipnc
  4870     0682  3001               	movlw	1
  4871     0683  07C5               	addwf	___fldiv@b+2,f
  4872     0684  3000               	movlw	0
  4873     0685  1803               	skipnc
  4874     0686  3001               	movlw	1
  4875     0687  07C6               	addwf	___fldiv@b+3,f
  4876     0688                     l1688:
  4877     0688  1C46               	btfss	___fldiv@b+3,0
  4878     0689  2E8B               	goto	u1911
  4879     068A  2E8C               	goto	u1910
  4880     068B                     u1911:
  4881     068B  2EAB               	goto	l1694
  4882     068C                     u1910:
  4883     068C                     l1690:
  4884     068C  0843               	movf	___fldiv@b,w
  4885     068D  00C7               	movwf	??___fldiv
  4886     068E  0844               	movf	___fldiv@b+1,w
  4887     068F  00C8               	movwf	??___fldiv+1
  4888     0690  0845               	movf	___fldiv@b+2,w
  4889     0691  00C9               	movwf	??___fldiv+2
  4890     0692  0846               	movf	___fldiv@b+3,w
  4891     0693  00CA               	movwf	??___fldiv+3
  4892     0694  3001               	movlw	1
  4893     0695  00CB               	movwf	??___fldiv+4
  4894     0696                     u1925:
  4895     0696  0D4A               	rlf	??___fldiv+3,w
  4896     0697  0CCA               	rrf	??___fldiv+3,f
  4897     0698  0CC9               	rrf	??___fldiv+2,f
  4898     0699  0CC8               	rrf	??___fldiv+1,f
  4899     069A  0CC7               	rrf	??___fldiv,f
  4900     069B                     u1920:
  4901     069B  0BCB               	decfsz	??___fldiv+4,f
  4902     069C  2E96               	goto	u1925
  4903     069D  084A               	movf	??___fldiv+3,w
  4904     069E  00C6               	movwf	___fldiv@b+3
  4905     069F  0849               	movf	??___fldiv+2,w
  4906     06A0  00C5               	movwf	___fldiv@b+2
  4907     06A1  0848               	movf	??___fldiv+1,w
  4908     06A2  00C4               	movwf	___fldiv@b+1
  4909     06A3  0847               	movf	??___fldiv,w
  4910     06A4  00C3               	movwf	___fldiv@b
  4911     06A5                     l1692:
  4912     06A5  3001               	movlw	1
  4913     06A6  07D1               	addwf	___fldiv@new_exp,f
  4914     06A7  1803               	skipnc
  4915     06A8  0AD2               	incf	___fldiv@new_exp+1,f
  4916     06A9  3000               	movlw	0
  4917     06AA  07D2               	addwf	___fldiv@new_exp+1,f
  4918     06AB                     l1694:
  4919     06AB  0852               	movf	___fldiv@new_exp+1,w
  4920     06AC  3A80               	xorlw	128
  4921     06AD  00FF               	movwf	btemp+1
  4922     06AE  3080               	movlw	128
  4923     06AF  027F               	subwf	btemp+1,w
  4924     06B0  1D03               	skipz
  4925     06B1  2EB4               	goto	u1935
  4926     06B2  30FF               	movlw	255
  4927     06B3  0251               	subwf	___fldiv@new_exp,w
  4928     06B4                     u1935:
  4929     06B4  1C03               	skipc
  4930     06B5  2EB7               	goto	u1931
  4931     06B6  2EB8               	goto	u1930
  4932     06B7                     u1931:
  4933     06B7  2EC6               	goto	l1698
  4934     06B8                     u1930:
  4935     06B8                     l1696:
  4936     06B8  30FF               	movlw	255
  4937     06B9  1283               	bcf	3,5	;RP0=0, select bank0
  4938     06BA  1303               	bcf	3,6	;RP1=0, select bank0
  4939     06BB  00D1               	movwf	___fldiv@new_exp
  4940     06BC  3000               	movlw	0
  4941     06BD  00D2               	movwf	___fldiv@new_exp+1
  4942     06BE  3000               	movlw	0
  4943     06BF  00C6               	movwf	___fldiv@b+3
  4944     06C0  3000               	movlw	0
  4945     06C1  00C5               	movwf	___fldiv@b+2
  4946     06C2  3000               	movlw	0
  4947     06C3  00C4               	movwf	___fldiv@b+1
  4948     06C4  3000               	movlw	0
  4949     06C5  00C3               	movwf	___fldiv@b
  4950     06C6                     l1698:
  4951     06C6  1283               	bcf	3,5	;RP0=0, select bank0
  4952     06C7  1303               	bcf	3,6	;RP1=0, select bank0
  4953     06C8  0852               	movf	___fldiv@new_exp+1,w
  4954     06C9  3A80               	xorlw	128
  4955     06CA  00FF               	movwf	btemp+1
  4956     06CB  3080               	movlw	128
  4957     06CC  027F               	subwf	btemp+1,w
  4958     06CD  1D03               	skipz
  4959     06CE  2ED1               	goto	u1945
  4960     06CF  3001               	movlw	1
  4961     06D0  0251               	subwf	___fldiv@new_exp,w
  4962     06D1                     u1945:
  4963     06D1  1803               	skipnc
  4964     06D2  2ED4               	goto	u1941
  4965     06D3  2ED5               	goto	u1940
  4966     06D4                     u1941:
  4967     06D4  2EE2               	goto	l693
  4968     06D5                     u1940:
  4969     06D5                     l1700:
  4970     06D5  1283               	bcf	3,5	;RP0=0, select bank0
  4971     06D6  1303               	bcf	3,6	;RP1=0, select bank0
  4972     06D7  01D1               	clrf	___fldiv@new_exp
  4973     06D8  01D2               	clrf	___fldiv@new_exp+1
  4974     06D9                     l1702:
  4975     06D9  3000               	movlw	0
  4976     06DA  00C6               	movwf	___fldiv@b+3
  4977     06DB  3000               	movlw	0
  4978     06DC  00C5               	movwf	___fldiv@b+2
  4979     06DD  3000               	movlw	0
  4980     06DE  00C4               	movwf	___fldiv@b+1
  4981     06DF  3000               	movlw	0
  4982     06E0  00C3               	movwf	___fldiv@b
  4983     06E1                     l1704:
  4984     06E1  01D0               	clrf	___fldiv@sign
  4985     06E2                     l693:
  4986     06E2  1283               	bcf	3,5	;RP0=0, select bank0
  4987     06E3  1303               	bcf	3,6	;RP1=0, select bank0
  4988     06E4  0851               	movf	___fldiv@new_exp,w
  4989     06E5  00D7               	movwf	___fldiv@bexp
  4990     06E6                     l1706:
  4991     06E6  1C57               	btfss	___fldiv@bexp,0
  4992     06E7  2EE9               	goto	u1951
  4993     06E8  2EEA               	goto	u1950
  4994     06E9                     u1951:
  4995     06E9  2EEC               	goto	l1710
  4996     06EA                     u1950:
  4997     06EA                     l1708:
  4998     06EA  17C5               	bsf	___fldiv@b+2,7
  4999     06EB  2EF0               	goto	l695
  5000     06EC                     l1710:
  5001     06EC  307F               	movlw	127
  5002     06ED  00C7               	movwf	??___fldiv
  5003     06EE  0847               	movf	??___fldiv,w
  5004     06EF  05C5               	andwf	___fldiv@b+2,f
  5005     06F0                     l695:
  5006     06F0  0857               	movf	___fldiv@bexp,w
  5007     06F1  00C7               	movwf	??___fldiv
  5008     06F2  1003               	clrc
  5009     06F3  0C47               	rrf	??___fldiv,w
  5010     06F4  00C6               	movwf	___fldiv@b+3
  5011     06F5  0850               	movf	___fldiv@sign,w
  5012     06F6  00C7               	movwf	??___fldiv
  5013     06F7  0847               	movf	??___fldiv,w
  5014     06F8  04C6               	iorwf	___fldiv@b+3,f
  5015     06F9  2D96               	goto	l1618
  5016     06FA                     l673:
  5017     06FA  0008               	return
  5018     06FB                     __end_of___fldiv:
  5019                           
  5020                           	psect	text15
  5021     0C51                     __ptext15:	
  5022 ;; *************** function _ADC_read *****************
  5023 ;; Defined at:
  5024 ;;		line 41 in file "setupADC.c"
  5025 ;; Parameters:    Size  Location     Type
  5026 ;;  channel         2    4[COMMON] int 
  5027 ;; Auto vars:     Size  Location     Type
  5028 ;;		None
  5029 ;; Return value:  Size  Location     Type
  5030 ;;                  2    4[COMMON] unsigned int 
  5031 ;; Registers used:
  5032 ;;		wreg, status,2, status,0
  5033 ;; Tracked objects:
  5034 ;;		On entry : 0/0
  5035 ;;		On exit  : 0/0
  5036 ;;		Unchanged: 0/0
  5037 ;; Data sizes:     COMMON   BANK0   BANK1   BANK3   BANK2
  5038 ;;      Params:         2       0       0       0       0
  5039 ;;      Locals:         0       0       0       0       0
  5040 ;;      Temps:          2       0       0       0       0
  5041 ;;      Totals:         4       0       0       0       0
  5042 ;;Total ram usage:        4 bytes
  5043 ;; Hardware stack levels used: 1
  5044 ;; Hardware stack levels required when called: 1
  5045 ;; This function calls:
  5046 ;;		Nothing
  5047 ;; This function is called by:
  5048 ;;		_main
  5049 ;; This function uses a non-reentrant model
  5050 ;;
  5051                           
  5052     0C51                     _ADC_read:	
  5053                           ;psect for function _ADC_read
  5054                           
  5055     0C51                     l1966:	
  5056                           ;incstack = 0
  5057                           ; Regs used in _ADC_read: [wreg+status,2+status,0]
  5058                           
  5059                           
  5060                           ;setupADC.c: 42:     if(channel ==0){
  5061     0C51  0874               	movf	ADC_read@channel,w
  5062     0C52  0475               	iorwf	ADC_read@channel+1,w
  5063     0C53  1D03               	btfss	3,2
  5064     0C54  2C56               	goto	u2631
  5065     0C55  2C57               	goto	u2630
  5066     0C56                     u2631:
  5067     0C56  2C70               	goto	l1978
  5068     0C57                     u2630:
  5069     0C57                     l1968:
  5070                           
  5071                           ;setupADC.c: 43:         ADCON0bits.CHS = 0b0000;
  5072     0C57  30C3               	movlw	-61
  5073     0C58  1283               	bcf	3,5	;RP0=0, select bank0
  5074     0C59  1303               	bcf	3,6	;RP1=0, select bank0
  5075     0C5A  059F               	andwf	31,f	;volatile
  5076     0C5B                     l1970:
  5077                           
  5078                           ;setupADC.c: 44:         _delay((unsigned long)((100)*(500000/4000000.0)));
  5079     0C5B  3003               	movlw	3
  5080     0C5C  00F6               	movwf	??_ADC_read
  5081     0C5D                     u3177:
  5082     0C5D  0BF6               	decfsz	??_ADC_read,f
  5083     0C5E  2C5D               	goto	u3177
  5084     0C5F  2C60               	nop2
  5085     0C60                     l1972:
  5086                           
  5087                           ;setupADC.c: 45:         ADCON0bits.GO = 1;
  5088     0C60  1283               	bcf	3,5	;RP0=0, select bank0
  5089     0C61  1303               	bcf	3,6	;RP1=0, select bank0
  5090     0C62  149F               	bsf	31,1	;volatile
  5091     0C63                     l195:	
  5092                           ;setupADC.c: 46:         while (ADCON0bits.GO);
  5093                           
  5094     0C63  189F               	btfsc	31,1	;volatile
  5095     0C64  2C66               	goto	u2641
  5096     0C65  2C67               	goto	u2640
  5097     0C66                     u2641:
  5098     0C66  2C63               	goto	l195
  5099     0C67                     u2640:
  5100     0C67                     l197:
  5101                           
  5102                           ;setupADC.c: 47:         ADIF = 0;
  5103     0C67  130C               	bcf	12,6	;volatile
  5104     0C68                     l1974:
  5105                           
  5106                           ;setupADC.c: 48:         return ADRESH;
  5107     0C68  081E               	movf	30,w	;volatile
  5108     0C69  00F6               	movwf	??_ADC_read
  5109     0C6A  01F7               	clrf	??_ADC_read+1
  5110     0C6B  0876               	movf	??_ADC_read,w
  5111     0C6C  00F4               	movwf	?_ADC_read
  5112     0C6D  0877               	movf	??_ADC_read+1,w
  5113     0C6E  00F5               	movwf	?_ADC_read+1
  5114     0C6F  2CA3               	goto	l198
  5115     0C70                     l1978:
  5116                           
  5117                           ;setupADC.c: 50:     if(channel ==1){
  5118     0C70  0374               	decf	ADC_read@channel,w
  5119     0C71  0475               	iorwf	ADC_read@channel+1,w
  5120     0C72  1D03               	btfss	3,2
  5121     0C73  2C75               	goto	u2651
  5122     0C74  2C76               	goto	u2650
  5123     0C75                     u2651:
  5124     0C75  2C89               	goto	l1990
  5125     0C76                     u2650:
  5126     0C76                     l1980:
  5127                           
  5128                           ;setupADC.c: 51:         ADCON0bits.CHS = 0b0001;
  5129     0C76  1283               	bcf	3,5	;RP0=0, select bank0
  5130     0C77  1303               	bcf	3,6	;RP1=0, select bank0
  5131     0C78  081F               	movf	31,w	;volatile
  5132     0C79  39C3               	andlw	-61
  5133     0C7A  3804               	iorlw	4
  5134     0C7B  009F               	movwf	31	;volatile
  5135     0C7C                     l1982:
  5136                           
  5137                           ;setupADC.c: 52:         _delay((unsigned long)((100)*(500000/4000000.0)));
  5138     0C7C  3003               	movlw	3
  5139     0C7D  00F6               	movwf	??_ADC_read
  5140     0C7E                     u3187:
  5141     0C7E  0BF6               	decfsz	??_ADC_read,f
  5142     0C7F  2C7E               	goto	u3187
  5143     0C80  2C81               	nop2
  5144     0C81                     l1984:
  5145                           
  5146                           ;setupADC.c: 53:         ADCON0bits.GO = 1;
  5147     0C81  1283               	bcf	3,5	;RP0=0, select bank0
  5148     0C82  1303               	bcf	3,6	;RP1=0, select bank0
  5149     0C83  149F               	bsf	31,1	;volatile
  5150     0C84                     l200:	
  5151                           ;setupADC.c: 54:         while (ADCON0bits.GO);
  5152                           
  5153     0C84  189F               	btfsc	31,1	;volatile
  5154     0C85  2C87               	goto	u2661
  5155     0C86  2C88               	goto	u2660
  5156     0C87                     u2661:
  5157     0C87  2C84               	goto	l200
  5158     0C88                     u2660:
  5159     0C88  2C67               	goto	l197
  5160     0C89                     l1990:
  5161                           
  5162                           ;setupADC.c: 58:     if(channel ==2){
  5163     0C89  3002               	movlw	2
  5164     0C8A  0674               	xorwf	ADC_read@channel,w
  5165     0C8B  0475               	iorwf	ADC_read@channel+1,w
  5166     0C8C  1D03               	btfss	3,2
  5167     0C8D  2C8F               	goto	u2671
  5168     0C8E  2C90               	goto	u2670
  5169     0C8F                     u2671:
  5170     0C8F  2CA3               	goto	l198
  5171     0C90                     u2670:
  5172     0C90                     l1992:
  5173                           
  5174                           ;setupADC.c: 59:         ADCON0bits.CHS = 0b0010;
  5175     0C90  1283               	bcf	3,5	;RP0=0, select bank0
  5176     0C91  1303               	bcf	3,6	;RP1=0, select bank0
  5177     0C92  081F               	movf	31,w	;volatile
  5178     0C93  39C3               	andlw	-61
  5179     0C94  3808               	iorlw	8
  5180     0C95  009F               	movwf	31	;volatile
  5181     0C96                     l1994:
  5182                           
  5183                           ;setupADC.c: 60:         _delay((unsigned long)((100)*(500000/4000000.0)));
  5184     0C96  3003               	movlw	3
  5185     0C97  00F6               	movwf	??_ADC_read
  5186     0C98                     u3197:
  5187     0C98  0BF6               	decfsz	??_ADC_read,f
  5188     0C99  2C98               	goto	u3197
  5189     0C9A  2C9B               	nop2
  5190     0C9B                     l1996:
  5191                           
  5192                           ;setupADC.c: 61:         ADCON0bits.GO = 1;
  5193     0C9B  1283               	bcf	3,5	;RP0=0, select bank0
  5194     0C9C  1303               	bcf	3,6	;RP1=0, select bank0
  5195     0C9D  149F               	bsf	31,1	;volatile
  5196     0C9E                     l204:	
  5197                           ;setupADC.c: 62:         while (ADCON0bits.GO);
  5198                           
  5199     0C9E  189F               	btfsc	31,1	;volatile
  5200     0C9F  2CA1               	goto	u2681
  5201     0CA0  2CA2               	goto	u2680
  5202     0CA1                     u2681:
  5203     0CA1  2C9E               	goto	l204
  5204     0CA2                     u2680:
  5205     0CA2  2C67               	goto	l197
  5206     0CA3                     l198:
  5207     0CA3  0008               	return
  5208     0CA4                     __end_of_ADC_read:
  5209                           
  5210                           	psect	text16
  5211     0C18                     __ptext16:	
  5212 ;; *************** function _ADC_config *****************
  5213 ;; Defined at:
  5214 ;;		line 11 in file "setupADC.c"
  5215 ;; Parameters:    Size  Location     Type
  5216 ;;  channel         2    4[COMMON] int 
  5217 ;; Auto vars:     Size  Location     Type
  5218 ;;		None
  5219 ;; Return value:  Size  Location     Type
  5220 ;;                  1    wreg      void 
  5221 ;; Registers used:
  5222 ;;		wreg
  5223 ;; Tracked objects:
  5224 ;;		On entry : 0/0
  5225 ;;		On exit  : 0/0
  5226 ;;		Unchanged: 0/0
  5227 ;; Data sizes:     COMMON   BANK0   BANK1   BANK3   BANK2
  5228 ;;      Params:         2       0       0       0       0
  5229 ;;      Locals:         0       0       0       0       0
  5230 ;;      Temps:          1       0       0       0       0
  5231 ;;      Totals:         3       0       0       0       0
  5232 ;;Total ram usage:        3 bytes
  5233 ;; Hardware stack levels used: 1
  5234 ;; Hardware stack levels required when called: 1
  5235 ;; This function calls:
  5236 ;;		Nothing
  5237 ;; This function is called by:
  5238 ;;		_main
  5239 ;; This function uses a non-reentrant model
  5240 ;;
  5241                           
  5242     0C18                     _ADC_config:	
  5243                           ;psect for function _ADC_config
  5244                           
  5245     0C18                     l1956:	
  5246                           ;incstack = 0
  5247                           ; Regs used in _ADC_config: [wreg]
  5248                           
  5249                           
  5250                           ;setupADC.c: 12:     if((channel & 0x01) == 1){
  5251     0C18  1C74               	btfss	ADC_config@channel,0
  5252     0C19  2C1B               	goto	u2601
  5253     0C1A  2C1C               	goto	u2600
  5254     0C1B                     u2601:
  5255     0C1B  2C25               	goto	l188
  5256     0C1C                     u2600:
  5257     0C1C                     l1958:
  5258                           
  5259                           ;setupADC.c: 13:         PORTAbits.RA0 = 0;
  5260     0C1C  1283               	bcf	3,5	;RP0=0, select bank0
  5261     0C1D  1303               	bcf	3,6	;RP1=0, select bank0
  5262     0C1E  1005               	bcf	5,0	;volatile
  5263                           
  5264                           ;setupADC.c: 14:         TRISAbits.TRISA0 = 1;
  5265     0C1F  1683               	bsf	3,5	;RP0=1, select bank1
  5266     0C20  1303               	bcf	3,6	;RP1=0, select bank1
  5267     0C21  1405               	bsf	5,0	;volatile
  5268                           
  5269                           ;setupADC.c: 15:         ANSELbits.ANS0 = 1;
  5270     0C22  1683               	bsf	3,5	;RP0=1, select bank3
  5271     0C23  1703               	bsf	3,6	;RP1=1, select bank3
  5272     0C24  1408               	bsf	8,0	;volatile
  5273     0C25                     l188:	
  5274                           ;setupADC.c: 16:     }
  5275                           
  5276                           
  5277                           ;setupADC.c: 17:     if((channel & 0x02) == 0x02){
  5278     0C25  1CF4               	btfss	ADC_config@channel,1
  5279     0C26  2C28               	goto	u2611
  5280     0C27  2C29               	goto	u2610
  5281     0C28                     u2611:
  5282     0C28  2C32               	goto	l189
  5283     0C29                     u2610:
  5284     0C29                     l1960:
  5285                           
  5286                           ;setupADC.c: 18:         PORTAbits.RA1 = 0;
  5287     0C29  1283               	bcf	3,5	;RP0=0, select bank0
  5288     0C2A  1303               	bcf	3,6	;RP1=0, select bank0
  5289     0C2B  1085               	bcf	5,1	;volatile
  5290                           
  5291                           ;setupADC.c: 19:         TRISAbits.TRISA1 = 1;
  5292     0C2C  1683               	bsf	3,5	;RP0=1, select bank1
  5293     0C2D  1303               	bcf	3,6	;RP1=0, select bank1
  5294     0C2E  1485               	bsf	5,1	;volatile
  5295                           
  5296                           ;setupADC.c: 20:         ANSELbits.ANS1 = 1;
  5297     0C2F  1683               	bsf	3,5	;RP0=1, select bank3
  5298     0C30  1703               	bsf	3,6	;RP1=1, select bank3
  5299     0C31  1488               	bsf	8,1	;volatile
  5300     0C32                     l189:	
  5301                           ;setupADC.c: 22:     }
  5302                           
  5303                           
  5304                           ;setupADC.c: 23:     if((channel & 0x04) == 0x4){
  5305     0C32  1D74               	btfss	ADC_config@channel,2
  5306     0C33  2C35               	goto	u2621
  5307     0C34  2C36               	goto	u2620
  5308     0C35                     u2621:
  5309     0C35  2C3F               	goto	l190
  5310     0C36                     u2620:
  5311     0C36                     l1962:
  5312                           
  5313                           ;setupADC.c: 24:         PORTAbits.RA2 = 0;
  5314     0C36  1283               	bcf	3,5	;RP0=0, select bank0
  5315     0C37  1303               	bcf	3,6	;RP1=0, select bank0
  5316     0C38  1105               	bcf	5,2	;volatile
  5317                           
  5318                           ;setupADC.c: 25:         TRISAbits.TRISA2 = 1;
  5319     0C39  1683               	bsf	3,5	;RP0=1, select bank1
  5320     0C3A  1303               	bcf	3,6	;RP1=0, select bank1
  5321     0C3B  1505               	bsf	5,2	;volatile
  5322                           
  5323                           ;setupADC.c: 26:         ANSELbits.ANS2 = 1;
  5324     0C3C  1683               	bsf	3,5	;RP0=1, select bank3
  5325     0C3D  1703               	bsf	3,6	;RP1=1, select bank3
  5326     0C3E  1508               	bsf	8,2	;volatile
  5327     0C3F                     l190:	
  5328                           ;setupADC.c: 27:     }
  5329                           
  5330                           
  5331                           ;setupADC.c: 29:     ADCON0bits.ADCS1 = 0;
  5332     0C3F  1283               	bcf	3,5	;RP0=0, select bank0
  5333     0C40  1303               	bcf	3,6	;RP1=0, select bank0
  5334     0C41  139F               	bcf	31,7	;volatile
  5335                           
  5336                           ;setupADC.c: 30:     ADCON0bits.ADCS0 = 1;
  5337     0C42  171F               	bsf	31,6	;volatile
  5338                           
  5339                           ;setupADC.c: 32:     ADCON1bits.VCFG1 = 0;
  5340     0C43  1683               	bsf	3,5	;RP0=1, select bank1
  5341     0C44  1303               	bcf	3,6	;RP1=0, select bank1
  5342     0C45  129F               	bcf	31,5	;volatile
  5343                           
  5344                           ;setupADC.c: 33:     ADCON1bits.VCFG0 = 0;
  5345     0C46  121F               	bcf	31,4	;volatile
  5346                           
  5347                           ;setupADC.c: 35:     ADCON1bits.ADFM = 0;
  5348     0C47  139F               	bcf	31,7	;volatile
  5349                           
  5350                           ;setupADC.c: 37:     ADCON0bits.ADON = 1;
  5351     0C48  1283               	bcf	3,5	;RP0=0, select bank0
  5352     0C49  1303               	bcf	3,6	;RP1=0, select bank0
  5353     0C4A  141F               	bsf	31,0	;volatile
  5354     0C4B                     l1964:
  5355                           
  5356                           ;setupADC.c: 38:     _delay((unsigned long)((100)*(500000/4000000.0)));
  5357     0C4B  3003               	movlw	3
  5358     0C4C  00F6               	movwf	??_ADC_config
  5359     0C4D                     u3207:
  5360     0C4D  0BF6               	decfsz	??_ADC_config,f
  5361     0C4E  2C4D               	goto	u3207
  5362     0C4F  2C50               	nop2
  5363     0C50                     l191:
  5364     0C50  0008               	return
  5365     0C51                     __end_of_ADC_config:
  5366                           
  5367                           	psect	text17
  5368     0DF9                     __ptext17:	
  5369 ;; *************** function _isr *****************
  5370 ;; Defined at:
  5371 ;;		line 70 in file "main.c"
  5372 ;; Parameters:    Size  Location     Type
  5373 ;;		None
  5374 ;; Auto vars:     Size  Location     Type
  5375 ;;		None
  5376 ;; Return value:  Size  Location     Type
  5377 ;;                  1    wreg      void 
  5378 ;; Registers used:
  5379 ;;		wreg, status,2, status,0
  5380 ;; Tracked objects:
  5381 ;;		On entry : 0/0
  5382 ;;		On exit  : 0/0
  5383 ;;		Unchanged: 0/0
  5384 ;; Data sizes:     COMMON   BANK0   BANK1   BANK3   BANK2
  5385 ;;      Params:         0       0       0       0       0
  5386 ;;      Locals:         0       0       0       0       0
  5387 ;;      Temps:          4       0       0       0       0
  5388 ;;      Totals:         4       0       0       0       0
  5389 ;;Total ram usage:        4 bytes
  5390 ;; Hardware stack levels used: 1
  5391 ;; This function calls:
  5392 ;;		Nothing
  5393 ;; This function is called by:
  5394 ;;		Interrupt level 1
  5395 ;; This function uses a non-reentrant model
  5396 ;;
  5397                           
  5398     0DF9                     _isr:	
  5399                           ;psect for function _isr
  5400                           
  5401     0DF9                     i1l2002:
  5402                           
  5403                           ;main.c: 72:     if(INTCONbits.T0IF){
  5404     0DF9  1D0B               	btfss	11,2	;volatile
  5405     0DFA  2DFC               	goto	u269_21
  5406     0DFB  2DFD               	goto	u269_20
  5407     0DFC                     u269_21:
  5408     0DFC  2E2C               	goto	i1l2024
  5409     0DFD                     u269_20:
  5410     0DFD                     i1l2004:
  5411                           
  5412                           ;main.c: 73:         INTCONbits.T0IF = 0;
  5413     0DFD  110B               	bcf	11,2	;volatile
  5414     0DFE                     i1l2006:
  5415                           
  5416                           ;main.c: 74:         TMR0 = 100;
  5417     0DFE  3064               	movlw	100
  5418     0DFF  1283               	bcf	3,5	;RP0=0, select bank0
  5419     0E00  1303               	bcf	3,6	;RP1=0, select bank0
  5420     0E01  0081               	movwf	1	;volatile
  5421     0E02                     i1l2008:
  5422                           
  5423                           ;main.c: 76:         if(SERVO == 0){
  5424     0E02  1683               	bsf	3,5	;RP0=1, select bank1
  5425     0E03  1303               	bcf	3,6	;RP1=0, select bank1
  5426     0E04  083D               	movf	_SERVO^(0+128),w
  5427     0E05  1D03               	btfss	3,2
  5428     0E06  2E08               	goto	u270_21
  5429     0E07  2E09               	goto	u270_20
  5430     0E08                     u270_21:
  5431     0E08  2E18               	goto	i1l2016
  5432     0E09                     u270_20:
  5433     0E09                     i1l2010:
  5434                           
  5435                           ;main.c: 77:             PORTDbits.RD1 = 1;
  5436     0E09  1283               	bcf	3,5	;RP0=0, select bank0
  5437     0E0A  1303               	bcf	3,6	;RP1=0, select bank0
  5438     0E0B  1488               	bsf	8,1	;volatile
  5439     0E0C                     i1l2012:
  5440                           
  5441                           ;main.c: 78:             _delay((unsigned long)((900)*(8000000/4000000.0)));
  5442     0E0C  3003               	movlw	3
  5443     0E0D  00F1               	movwf	??_isr+1
  5444     0E0E  3055               	movlw	85
  5445     0E0F  00F0               	movwf	??_isr
  5446     0E10                     u321_27:
  5447     0E10  0BF0               	decfsz	??_isr,f
  5448     0E11  2E10               	goto	u321_27
  5449     0E12  0BF1               	decfsz	??_isr+1,f
  5450     0E13  2E10               	goto	u321_27
  5451     0E14                     i1l2014:
  5452                           
  5453                           ;main.c: 79:             PORTDbits.RD1 = 0;
  5454     0E14  1283               	bcf	3,5	;RP0=0, select bank0
  5455     0E15  1303               	bcf	3,6	;RP1=0, select bank0
  5456     0E16  1088               	bcf	8,1	;volatile
  5457                           
  5458                           ;main.c: 80:         }
  5459     0E17  2E2C               	goto	i1l2024
  5460     0E18                     i1l2016:
  5461     0E18  033D               	decf	_SERVO^(0+128),w
  5462     0E19  1D03               	btfss	3,2
  5463     0E1A  2E1C               	goto	u271_21
  5464     0E1B  2E1D               	goto	u271_20
  5465     0E1C                     u271_21:
  5466     0E1C  2E2C               	goto	i1l2024
  5467     0E1D                     u271_20:
  5468     0E1D                     i1l2018:
  5469                           
  5470                           ;main.c: 82:             PORTDbits.RD1 = 1;
  5471     0E1D  1283               	bcf	3,5	;RP0=0, select bank0
  5472     0E1E  1303               	bcf	3,6	;RP1=0, select bank0
  5473     0E1F  1488               	bsf	8,1	;volatile
  5474     0E20                     i1l2020:
  5475                           
  5476                           ;main.c: 83:             _delay((unsigned long)((1900)*(8000000/4000000.0)));
  5477     0E20  3005               	movlw	5
  5478     0E21  00F1               	movwf	??_isr+1
  5479     0E22  30EE               	movlw	238
  5480     0E23  00F0               	movwf	??_isr
  5481     0E24                     u322_27:
  5482     0E24  0BF0               	decfsz	??_isr,f
  5483     0E25  2E24               	goto	u322_27
  5484     0E26  0BF1               	decfsz	??_isr+1,f
  5485     0E27  2E24               	goto	u322_27
  5486     0E28  0000               	nop
  5487     0E29                     i1l2022:
  5488                           
  5489                           ;main.c: 84:             PORTDbits.RD1 = 0;
  5490     0E29  1283               	bcf	3,5	;RP0=0, select bank0
  5491     0E2A  1303               	bcf	3,6	;RP1=0, select bank0
  5492     0E2B  1088               	bcf	8,1	;volatile
  5493     0E2C                     i1l2024:
  5494                           
  5495                           ;main.c: 88:     if(PIR1bits.SSPIF == 1){
  5496     0E2C  1283               	bcf	3,5	;RP0=0, select bank0
  5497     0E2D  1303               	bcf	3,6	;RP1=0, select bank0
  5498     0E2E  1D8C               	btfss	12,3	;volatile
  5499     0E2F  2E31               	goto	u272_21
  5500     0E30  2E32               	goto	u272_20
  5501     0E31                     u272_21:
  5502     0E31  2E81               	goto	i1l78
  5503     0E32                     u272_20:
  5504     0E32                     i1l2026:
  5505                           
  5506                           ;main.c: 90:         SSPCONbits.CKP = 0;
  5507     0E32  1214               	bcf	20,4	;volatile
  5508                           
  5509                           ;main.c: 92:         if ((SSPCONbits.SSPOV) || (SSPCONbits.WCOL)){
  5510     0E33  1B14               	btfsc	20,6	;volatile
  5511     0E34  2E36               	goto	u273_21
  5512     0E35  2E37               	goto	u273_20
  5513     0E36                     u273_21:
  5514     0E36  2E3B               	goto	i1l2030
  5515     0E37                     u273_20:
  5516     0E37                     i1l2028:
  5517     0E37  1F94               	btfss	20,7	;volatile
  5518     0E38  2E3A               	goto	u274_21
  5519     0E39  2E3B               	goto	u274_20
  5520     0E3A                     u274_21:
  5521     0E3A  2E40               	goto	i1l2038
  5522     0E3B                     u274_20:
  5523     0E3B                     i1l2030:
  5524                           
  5525                           ;main.c: 93:             z = SSPBUF;
  5526     0E3B  0813               	movf	19,w	;volatile
  5527     0E3C  00F9               	movwf	_z
  5528     0E3D                     i1l2032:
  5529                           
  5530                           ;main.c: 94:             SSPCONbits.SSPOV = 0;
  5531     0E3D  1314               	bcf	20,6	;volatile
  5532     0E3E                     i1l2034:
  5533                           
  5534                           ;main.c: 95:             SSPCONbits.WCOL = 0;
  5535     0E3E  1394               	bcf	20,7	;volatile
  5536     0E3F                     i1l2036:
  5537                           
  5538                           ;main.c: 96:             SSPCONbits.CKP = 1;
  5539     0E3F  1614               	bsf	20,4	;volatile
  5540     0E40                     i1l2038:
  5541                           
  5542                           ;main.c: 99:         if(!SSPSTATbits.D_nA && !SSPSTATbits.R_nW) {
  5543     0E40  1683               	bsf	3,5	;RP0=1, select bank1
  5544     0E41  1303               	bcf	3,6	;RP1=0, select bank1
  5545     0E42  1A94               	btfsc	20,5	;volatile
  5546     0E43  2E45               	goto	u275_21
  5547     0E44  2E46               	goto	u275_20
  5548     0E45                     u275_21:
  5549     0E45  2E5F               	goto	i1l69
  5550     0E46                     u275_20:
  5551     0E46                     i1l2040:
  5552     0E46  1914               	btfsc	20,2	;volatile
  5553     0E47  2E49               	goto	u276_21
  5554     0E48  2E4A               	goto	u276_20
  5555     0E49                     u276_21:
  5556     0E49  2E5F               	goto	i1l69
  5557     0E4A                     u276_20:
  5558     0E4A                     i1l2042:
  5559                           
  5560                           ;main.c: 100:             z = SSPBUF;
  5561     0E4A  1283               	bcf	3,5	;RP0=0, select bank0
  5562     0E4B  1303               	bcf	3,6	;RP1=0, select bank0
  5563     0E4C  0813               	movf	19,w	;volatile
  5564     0E4D  00F9               	movwf	_z
  5565     0E4E                     i1l2044:
  5566                           
  5567                           ;main.c: 102:             SSPCONbits.CKP = 1;
  5568     0E4E  1614               	bsf	20,4	;volatile
  5569     0E4F                     i1l70:	
  5570                           ;main.c: 103:             while(!SSPSTATbits.BF);
  5571                           
  5572     0E4F  1683               	bsf	3,5	;RP0=1, select bank1
  5573     0E50  1303               	bcf	3,6	;RP1=0, select bank1
  5574     0E51  1C14               	btfss	20,0	;volatile
  5575     0E52  2E54               	goto	u277_21
  5576     0E53  2E55               	goto	u277_20
  5577     0E54                     u277_21:
  5578     0E54  2E4F               	goto	i1l70
  5579     0E55                     u277_20:
  5580     0E55                     i1l2046:
  5581                           
  5582                           ;main.c: 104:             dato = SSPBUF;
  5583     0E55  1283               	bcf	3,5	;RP0=0, select bank0
  5584     0E56  1303               	bcf	3,6	;RP1=0, select bank0
  5585     0E57  0813               	movf	19,w	;volatile
  5586     0E58  00EE               	movwf	_dato
  5587                           
  5588                           ;main.c: 105:             _delay((unsigned long)((250)*(8000000/4000000.0)));
  5589     0E59  30A6               	movlw	166
  5590     0E5A  00F0               	movwf	??_isr
  5591     0E5B                     u323_27:
  5592     0E5B  0BF0               	decfsz	??_isr,f
  5593     0E5C  2E5B               	goto	u323_27
  5594     0E5D  0000               	nop
  5595                           
  5596                           ;main.c: 107:         }else if(!SSPSTATbits.D_nA && SSPSTATbits.R_nW){
  5597     0E5E  2E7E               	goto	i1l73
  5598     0E5F                     i1l69:
  5599     0E5F  1A94               	btfsc	20,5	;volatile
  5600     0E60  2E62               	goto	u278_21
  5601     0E61  2E63               	goto	u278_20
  5602     0E62                     u278_21:
  5603     0E62  2E7E               	goto	i1l73
  5604     0E63                     u278_20:
  5605     0E63                     i1l2048:
  5606     0E63  1D14               	btfss	20,2	;volatile
  5607     0E64  2E66               	goto	u279_21
  5608     0E65  2E67               	goto	u279_20
  5609     0E66                     u279_21:
  5610     0E66  2E7E               	goto	i1l73
  5611     0E67                     u279_20:
  5612     0E67                     i1l2050:
  5613                           
  5614                           ;main.c: 108:             z = SSPBUF;
  5615     0E67  1283               	bcf	3,5	;RP0=0, select bank0
  5616     0E68  1303               	bcf	3,6	;RP1=0, select bank0
  5617     0E69  0813               	movf	19,w	;volatile
  5618     0E6A  00F9               	movwf	_z
  5619     0E6B                     i1l2052:
  5620                           
  5621                           ;main.c: 109:             SSPSTATbits.BF = 0;
  5622     0E6B  1683               	bsf	3,5	;RP0=1, select bank1
  5623     0E6C  1303               	bcf	3,6	;RP1=0, select bank1
  5624     0E6D  1014               	bcf	20,0	;volatile
  5625                           
  5626                           ;main.c: 110:             SSPBUF = z;
  5627     0E6E  0879               	movf	_z,w
  5628     0E6F  1283               	bcf	3,5	;RP0=0, select bank0
  5629     0E70  1303               	bcf	3,6	;RP1=0, select bank0
  5630     0E71  0093               	movwf	19	;volatile
  5631     0E72                     i1l2054:
  5632                           
  5633                           ;main.c: 111:             SSPCONbits.CKP = 1;
  5634     0E72  1614               	bsf	20,4	;volatile
  5635                           
  5636                           ;main.c: 112:             _delay((unsigned long)((250)*(8000000/4000000.0)));
  5637     0E73  30A6               	movlw	166
  5638     0E74  00F0               	movwf	??_isr
  5639     0E75                     u324_27:
  5640     0E75  0BF0               	decfsz	??_isr,f
  5641     0E76  2E75               	goto	u324_27
  5642     0E77  0000               	nop
  5643     0E78                     i1l75:	
  5644                           ;main.c: 113:             while(SSPSTATbits.BF);
  5645                           
  5646     0E78  1683               	bsf	3,5	;RP0=1, select bank1
  5647     0E79  1303               	bcf	3,6	;RP1=0, select bank1
  5648     0E7A  1814               	btfsc	20,0	;volatile
  5649     0E7B  2E7D               	goto	u280_21
  5650     0E7C  2E7E               	goto	u280_20
  5651     0E7D                     u280_21:
  5652     0E7D  2E78               	goto	i1l75
  5653     0E7E                     u280_20:
  5654     0E7E                     i1l73:
  5655                           
  5656                           ;main.c: 117:         PIR1bits.SSPIF = 0;
  5657     0E7E  1283               	bcf	3,5	;RP0=0, select bank0
  5658     0E7F  1303               	bcf	3,6	;RP1=0, select bank0
  5659     0E80  118C               	bcf	12,3	;volatile
  5660     0E81                     i1l78:
  5661     0E81  0873               	movf	??_isr+3,w
  5662     0E82  008A               	movwf	10
  5663     0E83  0E72               	swapf	??_isr+2,w
  5664     0E84  0083               	movwf	3
  5665     0E85  0EFE               	swapf	btemp,f
  5666     0E86  0E7E               	swapf	btemp,w
  5667     0E87  0009               	retfie
  5668     0E88                     __end_of_isr:
  5669     007E                     btemp	set	126	;btemp
  5670     007E                     wtemp0	set	126
  5671                           
  5672                           	psect	intentry
  5673     0004                     __pintentry:	
  5674                           ;incstack = 0
  5675                           ; Regs used in _isr: [wreg+status,2+status,0]
  5676                           
  5677     0004                     interrupt_function:
  5678     007E                     saved_w	set	btemp
  5679     0004  00FE               	movwf	btemp
  5680     0005  0E03               	swapf	3,w
  5681     0006  00F2               	movwf	??_isr+2
  5682     0007  080A               	movf	10,w
  5683     0008  00F3               	movwf	??_isr+3
  5684     0009  120A  158A  2DF9   	ljmp	_isr
  5685                           
  5686                           	psect	idloc
  5687                           
  5688                           ;Config register IDLOC0 @ 0x2000
  5689                           ;	unspecified, using default values
  5690     2000                     	org	8192
  5691     2000  3FFF               	dw	16383
  5692                           
  5693                           ;Config register IDLOC1 @ 0x2001
  5694                           ;	unspecified, using default values
  5695     2001                     	org	8193
  5696     2001  3FFF               	dw	16383
  5697                           
  5698                           ;Config register IDLOC2 @ 0x2002
  5699                           ;	unspecified, using default values
  5700     2002                     	org	8194
  5701     2002  3FFF               	dw	16383
  5702                           
  5703                           ;Config register IDLOC3 @ 0x2003
  5704                           ;	unspecified, using default values
  5705     2003                     	org	8195
  5706     2003  3FFF               	dw	16383
  5707                           
  5708                           	psect	config
  5709                           
  5710                           ;Config register CONFIG1 @ 0x2007
  5711                           ;	Oscillator Selection bits
  5712                           ;	FOSC = INTRC_NOCLKOUT, INTOSCIO oscillator: I/O function on RA6/OSC2/CLKOUT pin, I/O f
      +                          unction on RA7/OSC1/CLKIN
  5713                           ;	Watchdog Timer Enable bit
  5714                           ;	WDTE = OFF, WDT disabled and can be enabled by SWDTEN bit of the WDTCON register
  5715                           ;	Power-up Timer Enable bit
  5716                           ;	PWRTE = OFF, PWRT disabled
  5717                           ;	RE3/MCLR pin function select bit
  5718                           ;	MCLRE = OFF, RE3/MCLR pin function is digital input, MCLR internally tied to VDD
  5719                           ;	Code Protection bit
  5720                           ;	CP = OFF, Program memory code protection is disabled
  5721                           ;	Data Code Protection bit
  5722                           ;	CPD = OFF, Data memory code protection is disabled
  5723                           ;	Brown Out Reset Selection bits
  5724                           ;	BOREN = OFF, BOR disabled
  5725                           ;	Internal External Switchover bit
  5726                           ;	IESO = OFF, Internal/External Switchover mode is disabled
  5727                           ;	Fail-Safe Clock Monitor Enabled bit
  5728                           ;	FCMEN = OFF, Fail-Safe Clock Monitor is disabled
  5729                           ;	Low Voltage Programming Enable bit
  5730                           ;	LVP = OFF, RB3 pin has digital I/O, HV on MCLR must be used for programming
  5731                           ;	In-Circuit Debugger Mode bit
  5732                           ;	DEBUG = 0x1, unprogramme  5733     2007                     	org	8199
  5734     2007  20D4               	dw	8404
  5735                           
  5736                           ;Config register CONFIG2 @ 0x2008
  5737                           ;	Brown-out Reset Selection bit
  5738                           ;	BOR4V = BOR40V, Brown-out Reset set to 4.0V
  5739                           ;	Flash Program Memory Self Write Enable bits
  5740                           ;	WRT = OFF, Write protection off
  5741     2008                     	org	8200
  5742     2008  3FFF               	dw	16383

Data Sizes:
    Strings     0
    Constant    4
    Data        0
    BSS         8
    Persistent  0
    Stack       0

Auto Spaces:
    Space          Size  Autos    Used
    COMMON           14      9      10
    BANK0            80     78      79
    BANK1            80     25      31
    BANK3            96      0       0
    BANK2            96      0       0

Pointer List with Targets:

    None.

Critical Paths under _main in COMMON

    _main->_initPwm
    _portsetup->_I2C_Slave_Init
    _initPwm->___lldiv
    _applyPWMDutyCycle->_pwmMaxDuty
    _pwmMaxDuty->___lldiv
    ___xxtofl->_pwmMaxDuty
    ___fltol->_pwmMaxDuty
    ___flmul->_pwmMaxDuty

Critical Paths under _isr in COMMON

    None.

Critical Paths under _main in BANK0

    _initPwm->___lldiv
    _applyPWMDutyCycle->___fltol
    _pwmMaxDuty->___lldiv
    ___xxtofl->_pwmMaxDuty
    ___fltol->___flmul
    ___flmul->___fldiv
    ___fldiv->___xxtofl

Critical Paths under _isr in BANK0

    None.

Critical Paths under _main in BANK1

    _main->_applyPWMDutyCycle
    _applyPWMDutyCycle->___fltol
    ___fltol->___flmul

Critical Paths under _isr in BANK1

    None.

Critical Paths under _main in BANK3

    None.

Critical Paths under _isr in BANK3

    None.

Critical Paths under _main in BANK2

    None.

Critical Paths under _isr in BANK2

    None.

Call Graph Tables:

 ---------------------------------------------------------------------------------
 (Depth) Function   	        Calls       Base Space   Used Autos Params    Refs
 ---------------------------------------------------------------------------------
 (0) _main                                                 2     2      0    7575
                                             23 BANK1      2     2      0
                         _ADC_config
                           _ADC_read
                  _applyPWMDutyCycle
                            _initPwm
                          _portsetup
                        _setupINTOSC
                           _setupPWM
                          _setupTMR0
 ---------------------------------------------------------------------------------
 (1) _setupTMR0                                            0     0      0       0
 ---------------------------------------------------------------------------------
 (1) _setupPWM                                             0     0      0       0
 ---------------------------------------------------------------------------------
 (1) _setupINTOSC                                          1     1      0     176
                                              4 COMMON     1     1      0
 ---------------------------------------------------------------------------------
 (1) _portsetup                                            0     0      0      22
                     _I2C_Slave_Init
 ---------------------------------------------------------------------------------
 (2) _I2C_Slave_Init                                       1     1      0      22
                                              4 COMMON     1     1      0
 ---------------------------------------------------------------------------------
 (1) _initPwm                                              8     4      4     902
                                              5 COMMON     4     4      0
                                             13 BANK0      4     0      4
                            ___lldiv
 ---------------------------------------------------------------------------------
 (1) _applyPWMDutyCycle                                    8     2      6    6191
                                             15 BANK1      8     2      6
                            ___fldiv
                            ___flmul
                            ___fltol
                           ___xxtofl
                         _pwmMaxDuty
 ---------------------------------------------------------------------------------
 (2) _pwmMaxDuty                                           8     4      4     902
                                              5 COMMON     4     4      0
                                             13 BANK0      4     0      4
                            ___lldiv
 ---------------------------------------------------------------------------------
 (2) ___lldiv                                             14     6      8     781
                                              4 COMMON     1     1      0
                                              0 BANK0     13     5      8
 ---------------------------------------------------------------------------------
 (2) ___xxtofl                                            14    10      4     474
                                             17 BANK0     14    10      4
                         _pwmMaxDuty (ARG)
 ---------------------------------------------------------------------------------
 (2) ___fltol                                             10     6      4     427
                                             70 BANK0      8     4      4
                                             13 BANK1      2     2      0
                            ___fldiv (ARG)
                            ___flmul (ARG)
                           ___xxtofl (ARG)
                         _pwmMaxDuty (ARG)
 ---------------------------------------------------------------------------------
 (2) ___flmul                                             26    18      8    2417
                                             57 BANK0     13     5      8
                                              0 BANK1     13    13      0
                          __Umul8_16
                            ___fldiv (ARG)
                           ___xxtofl (ARG)
                         _pwmMaxDuty (ARG)
 ---------------------------------------------------------------------------------
 (3) __Umul8_16                                            9     7      2     799
                                              4 COMMON     4     2      2
                                              0 BANK0      5     5      0
 ---------------------------------------------------------------------------------
 (2) ___fldiv                                             26    18      8    1273
                                             31 BANK0     26    18      8
                           ___xxtofl (ARG)
 ---------------------------------------------------------------------------------
 (1) _ADC_read                                             4     2      2     142
                                              4 COMMON     4     2      2
 ---------------------------------------------------------------------------------
 (1) _ADC_config                                           3     1      2     142
                                              4 COMMON     3     1      2
 ---------------------------------------------------------------------------------
 Estimated maximum stack depth 3
 ---------------------------------------------------------------------------------
 (Depth) Function   	        Calls       Base Space   Used Autos Params    Refs
 ---------------------------------------------------------------------------------
 (4) _isr                                                  4     4      0       0
                                              0 COMMON     4     4      0
 ---------------------------------------------------------------------------------
 Estimated maximum stack depth 4
 ---------------------------------------------------------------------------------

 Call Graph Graphs:

 _main (ROOT)
   _ADC_config
   _ADC_read
   _applyPWMDutyCycle
     ___fldiv
       ___xxtofl (ARG)
         _pwmMaxDuty (ARG)
           ___lldiv
     ___flmul
       __Umul8_16
       ___fldiv (ARG)
       ___xxtofl (ARG)
       _pwmMaxDuty (ARG)
     ___fltol
       ___fldiv (ARG)
       ___flmul (ARG)
       ___xxtofl (ARG)
       _pwmMaxDuty (ARG)
     ___xxtofl
     _pwmMaxDuty
   _initPwm
     ___lldiv
   _portsetup
     _I2C_Slave_Init
   _setupINTOSC
   _setupPWM
   _setupTMR0

 _isr (ROOT)

 Address spaces:
Name               Size   Autos  Total    Cost      Usage
BITCOMMON            E      0       0       0        0.0%
EEDATA             100      0       0       0        0.0%
NULL                 0      0       0       0        0.0%
CODE                 0      0       0       0        0.0%
COMMON               E      9       A       1       71.4%
BITSFR0              0      0       0       1        0.0%
SFR0                 0      0       0       1        0.0%
BITSFR1              0      0       0       2        0.0%
SFR1                 0      0       0       2        0.0%
STACK                0      0       0       2        0.0%
ABS                  0      0      78       3        0.0%
BITBANK0            50      0       0       4        0.0%
BITSFR3              0      0       0       4        0.0%
SFR3                 0      0       0       4        0.0%
BANK0               50     4E      4F       5       98.8%
BITSFR2              0      0       0       5        0.0%
SFR2                 0      0       0       5        0.0%
BITBANK1            50      0       0       6        0.0%
BANK1               50     19      1F       7       38.8%
BITBANK3            60      0       0       8        0.0%
BANK3               60      0       0       9        0.0%
BITBANK2            60      0       0      10        0.0%
BANK2               60      0       0      11        0.0%
DATA                 0      0      78      12        0.0%


Microchip Technology PIC Macro Assembler V2.40 build 20220703182018 
Symbol Table                                                                                   Wed Mar 08 12:30:44 2023

              ___fldiv@aexp 0058                ___fldiv@bexp 0057                           _z 0079  
                         pc 0002                ___fldiv@sign 0050                 _SSPSTATbits 0094  
                        l87 07B6                          l98 0B8C                          fsr 0004  
       __Umul8_16@word_mpld 0022                         l101 0B7B                         l200 0C84  
                       l204 0C9E                         l223 0B9A                         l232 07F2  
                       l161 0CAF                         l225 0B9E                         l162 0CBB  
                       l226 0BA1                         l163 0CC7                         l236 0FFF  
                       l156 0BBB                         l164 0CD3                         l229 0C17  
                       l165 0CDF                         l190 0C3F                         l166 0CEB  
                       l191 0C50                         l167 0CF6                         _ADC 00BE  
                       l169 0D02                         l195 0C63                         l515 0DE1  
                       l188 0C25                         l508 0DF8                         l189 0C32  
                       l197 0C67                         l198 0CA3                         l518 0DF8  
                       l358 0D6A                         l711 0527                         l730 0BD2  
                       l723 0509                         l732 0BE4                         l717 0463  
                       l671 057E                         l673 06FA                         l761 0EEF  
                       l755 0EAC                         l693 06E2                         l757 0F41  
                       l695 06F0                         l687 0670                         l768 0F0B  
                       l769 0F17                         _GIE 005F                         _PR2 0092  
                       _isr 0DF9                ___flmul@aexp 00A5                ___flmul@bexp 00A6  
              ___flmul@sign 00A0                ___flmul@temp 00AB                ___flmul@prod 00A7  
              ___fltol@exp1 00AE                        l2110 0D25                        l2120 0D53  
                      l2112 0D29                        l2104 0D03                        l2200 076F  
                      l2122 0D5C                        l2114 0D32                        l2106 0D15  
                      l2210 079B                        l2202 0779                        l2140 0D9A  
                      l2132 0D6B                        l2116 0D44                        l2108 0D18  
                      l2124 0D62                        l2212 07A1                        l2204 078A  
                      l1510 0BC8                        l2142 0D9D                        l2134 0D78  
                      l2118 0D52                        l2214 07B1                        l2206 0791  
                      l1600 0560                        l1512 0BCC                        l2144 0DA5  
                      l2128 0BE5                        l1520 0BA3                        l2208 0797  
                      l1610 0574                        l1602 0561                        l1514 0BDB  
                      l1506 0BBF                        l2162 0DD2                        l2154 0DB5  
                      l2146 0DA9                        l2138 0D83                        l2170 0F42  
                      l1530 0BB5                        l1522 0BB1                        l1700 06D5  
                      l1604 0566                        l1612 0576                        l1516 0BE0  
                      l1508 0BC1                        l2164 0DE6                        l2148 0DAD  
                      l2156 0DCB                        l2172 0F4D                        l1532 0BB8  
                      l1524 0BB2                        l2180 06FB                        l1710 06EC  
                      l1702 06D9                        l1630 05BF                        l1614 0586  
                      l1622 059F                        l1606 056B                        l2166 0DEB  
                      l2174 0FD7                        l1526 0BB3                        l2190 0746  
                      l2182 071F                        l1704 06E1                        l1640 05DE  
                      l1632 05C7                        l1624 05A4                        l1616 0592  
                      l1608 0573                        l1800 03EE                        l1720 002E  
                      l2176 0FDD                        l2168 07BA                        l1528 0BB4  
                      l2192 074B                        l2184 0732                        l1706 06E6  
                      l1650 0610                        l1642 05F0                        l1634 05CF  
                      l1618 0596                        l1810 042B                        l1802 0406  
                      l1730 004D                        l1722 0034                        l2178 0FEF  
                      l2194 0750                        l2186 073B                        l1708 06EA  
                      l1660 0631                        l1652 0611                        l1644 05F4  
                      l1636 05D7                        l1628 05AD                        l1580 0535  
                      l1820 045E                        l1804 0415                        l1812 0433  
                      l1740 006F                        l1732 0050                        l1724 0037  
                      l1716 001F                        l1900 0CA5                        l2196 0756  
                      l2188 0742                        l1670 064A                        l1662 0633  
                      l1654 061F                        l1646 05F5                        l1638 05D9  
                      l1590 0549                        l1582 0536                        l1574 0528  
                      l1830 0481                        l1814 0437                        l1806 041B  
                      l1750 008B                        l1742 0072                        l1734 005A  
                      l1726 003E                        l1718 0026                        l1910 0CD9  
                      l1902 0CAB                        l2198 0762                        l1680 066D  
                      l1664 063C                        l1672 0650                        l1648 05FE  
                      l1656 0623                        l1584 053B                        l1592 054B  
                      l1576 052D                        l1840 04E3                        l1832 04B6  
                      l1824 046A                        l1816 0438                        l1808 041C  
                      l1760 00AC                        l1752 0095                        l1744 0079  
                      l1736 0061                        l1728 0043                        l1920 0B7C  
                      l1912 0CE5                        l1904 0CB5                        l1690 068C  
                      l1674 0654                        l1666 0640                        l1658 0629  
                      l1594 0553                        l1586 0540                        l1578 0531  
                      l1850 0500                        l1842 04ED                        l1826 046F  
                      l1834 04BC                        l1818 043C                        l1770 0176  
                      l1762 00BC                        l1754 009C                        l1746 007E  
                      l1738 0069                        l1922 0B80                        l1914 0CF0  
                      l1906 0CC1                        l1930 0B75                        l1692 06A5  
                      l1684 0675                        l1676 0655                        l1668 0641  
                      l1596 0558                        l1588 0548                        l1852 0511  
                      l1844 04EF                        l1836 04C9                        l1828 047D  
                      l1780 0228                        l1772 01A6                        l1764 00D9  
                      l1756 00A1                        l1748 0088                        l1860 0E94  
                      l1924 0B83                        l1916 0CFB                        l1908 0CCD  
                      l1940 0B95                        l1932 0B77                        l1686 067A  
                      l1694 06AB                        l1678 0659                        l1598 055C  
                      l1846 04FB                        l1838 04D4                        l1790 0304  
                      l1782 0238                        l1774 01D6                        l1766 0106  
                      l1870 0EC0                        l1862 0EA4                        l1926 0B86  
                      l1918 0CFF                        l1942 0B99                        l1934 0B8D  
                      l1960 0C29                        l1696 06B8                        l1688 0688  
                      l1848 04FF                        l1792 0314                        l1784 026D  
                      l1776 01E5                        l1768 0136                        l1880 0EF6  
                      l1872 0ECD                        l1864 0EB4                        l1856 0E8B  
                      l1936 0B90                        l1928 0B6D                        l1962 0C36  
                      l1970 0C5B                        l1698 06C6                        l1794 0359  
                      l1786 028A                        l1778 01F3                        l1890 0F2F  
                      l1882 0F01                        l1874 0ED4                        l1858 0E90  
                      l1938 0B94                        l1964 0C4B                        l1956 0C18  
                      l1980 0C76                        l1972 0C60                        l1796 0397  
                      l1788 02BF                        l1892 0F34                        l1884 0F05  
                      l1876 0ED8                        l1868 0EBD                        l1958 0C1C  
                      l1982 0C7C                        l1990 0C89                        l1974 0C68  
                      l1966 0C51                        l1798 03DF                        l1894 0F38  
                      l1886 0F0F                        l1878 0EE6                        l1992 0C90  
                      l1984 0C81                        l1968 0C57                        l1896 0F39  
                      l1888 0F19                        l1994 0C96                        l1978 0C70  
                      l1996 0C9B                        _ADIF 0066                        ?_isr 0070  
                      u2000 0079                        u2001 0078                        u2010 007E  
                      u2011 007D                        u2020 009C                        u2101 0253  
                      u2021 009B                        u2102 025E                        u2030 00A1  
                      u2103 0269                        u2031 00A0                        u2121 02A5  
                      u2041 011C                        u2210 041B                        u2122 02B0  
                      u2042 0127                        u3010 0DCA                        u2211 041A  
                      u2131 02EA                        u2123 02BB                        u2115 0271  
                      u2051 014C                        u2043 0132                        u3011 0DC9  
                      u2300 04C9                        u2132 02F5                        u2052 0157  
                      u3020 0DD1                        u3100 0742                        u2301 04C8  
                      u2205 040A                        u2141 032F                        u2133 0300  
                      u2061 018C                        u2053 0162                        u3021 0DD0  
                      u3005 0DB6                        u3101 0741                        u2310 04E3  
                      u2230 0437                        u2150 036B                        u2142 033A  
                      u2062 0197                        u3110 074B                        u2311 04E2  
                      u2231 0436                        u2143 0345                        u2071 01BC  
                      u2063 01A2                        u3111 074A                        u2320 04FF  
                      u2240 043C                        u2072 01C7                        u3040 0DE6  
                      u3120 0756                        u2321 04FE                        u2305 04C5  
                      u2241 043B                        u2225 0420                        u2161 037D  
                      u2073 01D2                        u3041 0DE5                        u3121 0755  
                      u1530 0BCC                        u2250 045E                        u2170 03B3  
                      u2162 0388                        u3050 0DEB                        u2410 0F05  
                      u2330 0E90                        u3130 0779                        u1531 0BCB  
                      u2315 04DF                        u2251 045D                        u2163 0393  
                      u2155 0366                        u2091 020E                        u3051 0DEA  
                      u3035 0DD6                        u2411 0F04                        u2331 0E8F  
                      u3131 0778                        u1700 0560                        u2260 0469  
                      u2092 0219                        u2420 0F0B                        u2340 0E94  
                      u3060 07CA                        u2500 0CCD                        u3140 0797  
                      u1701 055F                        u2261 0468                        u2181 03C5  
                      u2093 0224                        u2085 01DA                        u2421 0F0A  
                      u2405 0EFA                        u2341 0E93                        u2501 0CCC  
                      u3141 0796                        u1710 0566                        u1550 0BE0  
                      u2270 046F                        u2182 03D0                        u2430 0F0F  
                      u2350 0EB4                        u3070 07D3                        u2510 0CD9  
                      u3150 07A1                        u3207 0C4D                        u1711 0565  
                      u1551 0BDF                        u2271 046E                        u2183 03DB  
                      u2175 03AE                        u2431 0F0E                        u2351 0EB3  
                      u2511 0CD8                        u3151 07A0                        u3135 0775  
                      u2600 0C1C                        u1800 0610                        u1720 056B  
                      u2280 0481                        u2440 0F24                        u3080 0F4D  
                      u2520 0CE5                        u2601 0C1B                        u1801 060F  
                      u1721 056A                        u1545 0BD3                        u2281 0480  
                      u3081 0F4C                        u3065 07C5                        u2521 0CE4  
                      u2610 0C29                        u1810 0629                        u1730 0586  
                      u2290 049E                        u2450 0F34                        u2370 0ED3  
                      u2530 0CF0                        u2611 0C28                        u1811 0628  
                      u1731 0585                        u2195 03E3                        u2451 0F33  
                      u2371 0ED2                        u3075 07CE                        u2531 0CEF  
                      u2620 0C36                        u1900 067A                        u1820 0631  
                      u1740 05A4                        u2460 0F38                        u2540 0CFB  
                      u2621 0C35                        u1901 0679                        u1821 0630  
                      u1805 060C                        u1741 05A3                        u2461 0F37  
                      u2445 0F1F                        u2365 0EC5                        u2541 0CFA  
                      u2630 0C57                        u1910 068C                        u1750 05DE  
                      u1670 0535                        u2390 0EF5                        u2470 0CAB  
                      u2550 0B9E                        u2631 0C56                        u1911 068B  
                      u1751 05DD                        u1671 0534                        u2295 0499  
                      u2391 0EF4                        u3095 0FE2                        u2471 0CAA  
                      u2551 0B9D                        u2640 0C67                        u1920 069B  
                      u1840 0640                        u1680 053B                        u2480 0CB5  
                      u2641 0C66                        u3177 0C5D                        u1841 063F  
                      u1681 053A                        u2385 0EE7                        u2481 0CB4  
                      u2650 0C76                        u1930 06B8                        u1690 0540  
                      u2490 0CC1                        u3187 0C7E                        u2651 0C75  
                      u1931 06B7                        u1835 0635                        u1691 053F  
                      u2491 0CC0                        u2660 0C88                        u1940 06D5  
                      u1860 0654                        u1780 05F4                        u2900 0D29  
                      u3197 0C98                        u2661 0C87                        u1941 06D4  
                      u1925 0696                        u1861 0653                        u1781 05F3  
                      u1765 05E0                        u2901 0D28                        u2670 0C90  
                      u1950 06EA                        u1870 0659                        u2671 0C8F  
                      u1951 06E9                        u1935 06B4                        u1871 0658  
                      u1855 0643                        u1775 05E9                        u2680 0CA2  
                      u1880 066D                        u1960 0034                        u2920 0D44  
                      u2681 0CA1                        u1945 06D1                        u1881 066C  
                      u1961 0033                        u2921 0D43                        u1890 0674  
                      u1970 003E                        u1891 0673                        u1795 05F7  
                      u1971 003D                        u2915 0D2B                        _PEIE 005E  
                      u1980 0043                        u2940 0D62                        u1981 0042  
                      u2941 0D61                        u2925 0D40                        u1990 006F  
                      u2950 0BF5                        u1991 006E                        u2935 0D54  
                      u2960 0D78                        u2880 0D15                        u2961 0D77  
                      u2881 0D14                        u2970 0D93                        u2955 0BF0  
                      u2980 0DAD                        u2981 0DAC                        i1l70 0E4F  
                      u2990 0DB4                        u2991 0DB3                        u2975 0D8E  
                      u2895 0D1A                        i1l73 0E7E                        i1l75 0E78  
                      i1l69 0E5F                        i1l78 0E81                        _TMR0 0001  
                      _dato 006E                        _main 06FB                        btemp 007E  
                      start 000C            __end_of_ADC_read 0CA4             ___fldiv@new_exp 0051  
                     ??_isr 0070               ___fltol@sign1 00AD                       ?_main 0070  
           __end_of___fldiv 06FB             __end_of___flmul 0528             __end_of___fltol 0DF9  
                     _ANSEL 0188             __end_of___lldiv 0D6B                       _SERVO 00BD  
                     _SSPIE 0463                       _SSPIF 0063             __end_of_initPwm 07F3  
                     pclath 000A             __end_of_pwmFreq 07FD                       status 0003  
                     wtemp0 007E             __initialization 000F                __end_of_main 07BA  
                    ??_main 00B7                      _ADRESH 001E                      _CCPR1L 0015  
                    _ANSELH 0189                      i1l2010 0E09                      i1l2002 0DF9  
                    i1l2020 0E20                      i1l2012 0E0C                      i1l2004 0DFD  
                    i1l2030 0E3B                      i1l2022 0E29                      i1l2014 0E14  
                    i1l2006 0DFE                      i1l2040 0E46                      i1l2032 0E3D  
                    i1l2016 0E18                      i1l2008 0E02                      i1l2024 0E2C  
                    i1l2050 0E67                      i1l2042 0E4A                      i1l2034 0E3E  
                    i1l2026 0E32                      i1l2018 0E1D                      i1l2052 0E6B  
                    i1l2044 0E4E                      i1l2036 0E3F                      i1l2028 0E37  
                    i1l2054 0E72                      i1l2046 0E55                      i1l2038 0E40  
                    i1l2048 0E63                      u321_27 0E10                      u322_27 0E24  
                    u323_27 0E5B                      u324_27 0E75                      u270_20 0E09  
                    u270_21 0E08                      u271_20 0E1D                      u271_21 0E1C  
                    u280_20 0E7E                      u272_20 0E32                      u280_21 0E7D  
                    u272_21 0E31                      u273_20 0E37                      u273_21 0E36  
                    u274_20 0E3B                      u274_21 0E3A                      u275_20 0E46  
                    u275_21 0E45                      u276_20 0E4A                      u276_21 0E49  
                    u277_20 0E55                      u269_20 0DFD                      u277_21 0E54  
                    u269_21 0DFC                      u278_20 0E63                      u278_21 0E62  
                    u279_20 0E67                      u279_21 0E66                      _TMR2IF 0061  
                    _TMR2ON 0092                      _SSPADD 0093                      _TRISC3 043B  
                    _TRISC4 043C                      _SSPBUF 0013                      _SSPCON 0014  
          __end_of___xxtofl 0F42                 initPwm@freq 002D                ??_ADC_config 0076  
                 ??___fldiv 0047                   ??___flmul 0061                   ??___fltol 006A  
                 ??___lldiv 0074                ?_setupINTOSC 0070                   ??_initPwm 0075  
          __end_of_setupPWM 0BA2                      saved_w 007E                   ?_ADC_read 0074  
        __end_of_ADC_config 0C51                ___xxtofl@arg 003B                ___xxtofl@exp 003A  
              ___xxtofl@val 0031  applyPWMDutyCycle@dutyCycle 00AF     __end_of__initialization 001B  
                ___fltol@f1 0066              __pcstackCOMMON 0070              _OPTION_REGbits 0081  
           ADC_read@channel 0074       applyPWMDutyCycle@freq 00B1                  ??_ADC_read 0076  
     I2C_Slave_Init@address 0074                  __pbssBANK0 006E                  __pbssBANK1 00B9  
         __end_of__Umul8_16 0BE5                  __pmaintext 06FB                  __pintentry 0004  
                   _CCP1CON 0017           _applyPWMDutyCycle 0F42          ?_applyPWMDutyCycle 00AF  
                 ?___xxtofl 0031         ??_applyPWMDutyCycle 00B5                     _SSPCON2 0091  
                   _SSPSTAT 0094                  __stringtab 07F3                   ?_setupPWM 0070  
                   ___fldiv 0528   __end_of_applyPWMDutyCycle 1000                     ___flmul 001F  
                   ___fltol 0D6B                     ___lldiv 0D03                   _ANSELbits 0188  
                   __ptext1 0B6D                     __ptext2 0B8D                     __ptext3 0CA4  
                   __ptext4 0B7C                     __ptext5 0BA2                     __ptext6 07BA  
                   __ptext7 0F42                     __ptext8 0BE5                     __ptext9 0D03  
                 _T2CONbits 0012                     _initPwm 07BA                  ??___xxtofl 0035  
                   _pwmFreq 07F9        end_of_initialization 001B           __end_of_setupTMR0 0B7C  
           ___lldiv@divisor 0020             ___lldiv@counter 002C              _I2C_Slave_Init 0BA2  
                ??_setupPWM 0074           __end_of_portsetup 0B8D                  _pwmMaxDuty 0BE5  
                 _PORTAbits 0005                   _PORTDbits 0008               ___xxtofl@sign 0039  
                 _TRISAbits 0085                   _TRISCbits 0087                   _TRISDbits 0088  
               ___fldiv@grs 0053                 ___fldiv@rem 004C                 ___flmul@grs 00A1  
    __end_of_I2C_Slave_Init 0BBC         start_initialization 000F                 __end_of_isr 0E88  
         ADC_config@channel 0074             ?_I2C_Slave_Init 0070                   __Umul8_16 0BBC  
               ?_pwmMaxDuty 002D                   ___fldiv@a 003F                   ___fldiv@b 0043  
                 ___flmul@a 005D                   ___flmul@b 0059                 __pbssCOMMON 0079  
                 ___latbits 0002               __pcstackBANK0 0020               __pcstackBANK1 00A0  
           setupINTOSC@IRCF 0074              _dutyCycleApply 00B9                    ?___fldiv 003F  
                  ?___flmul 0059                    ?___fltol 0066                    ?___lldiv 0020  
                ?__Umul8_16 0074                   __pstrings 07F3                    ?_initPwm 002D  
                  _ADC_read 0C51                   _dutycycle 00BB           interrupt_function 0004  
                  _PIR1bits 000C                   _setupTMR0 0B6D                  _ADCON0bits 001F  
               __stringbase 07F8                  _ADCON1bits 009F               ??_setupINTOSC 0074  
                 _portsetup 0B7C                  _ADC_config 0C18                  ?_setupTMR0 0070  
               ??__Umul8_16 0076          __end_of__stringtab 07F9                  ?_portsetup 0070  
                  ___xxtofl 0E88                    __ptext10 0E88                    __ptext11 0D6B  
                  __ptext12 001F                    __ptext13 0BBC                    __ptext14 0528  
                  __ptext15 0C51                    __ptext16 0C18                    __ptext17 0DF9  
       __end_of_setupINTOSC 0D03            ??_I2C_Slave_Init 0074              pwmMaxDuty@freq 002D  
                  _setupPWM 0B8D                ??_pwmMaxDuty 0075                  _INTCONbits 000B  
                  intlevel1 0000            ___lldiv@dividend 0024          __end_of_pwmMaxDuty 0C18  
                 stringcode 07F3                  _OSCCONbits 008F                 ?_ADC_config 0074  
               ??_setupTMR0 0074                 ??_portsetup 0075      __Umul8_16@multiplicand 0074  
               _setupINTOSC 0CA4            ___lldiv@quotient 0028                    stringdir 07F3  
                  stringtab 07F3                 _SSPCON2bits 0091        __Umul8_16@multiplier 0024  
                _SSPCONbits 0014           __Umul8_16@product 0020  
